
build/arm/output/boot/squire:     file format elf32-littlearm


Disassembly of section .text:

c0100000 <__stext>:
c0100000:	ea000682 	b	c0101a10 <_start>
c0100004:	eafffffe 	b	c0100004 <__stext+0x4>
c0100008:	eafffffe 	b	c0100008 <__stext+0x8>
c010000c:	ea00067b 	b	c0101a00 <ab_rwinvalid>
c0100010:	ea00067a 	b	c0101a00 <ab_rwinvalid>
c0100014:	eafffffe 	b	c0100014 <__stext+0x14>
c0100018:	ea00067b 	b	c0101a0c <irq>
c010001c:	eafffffe 	b	c010001c <__stext+0x1c>

c0100020 <main>:
c0100020:	e92d4800 	push	{fp, lr}
c0100024:	e28db004 	add	fp, sp, #4
c0100028:	eb000652 	bl	c0101978 <sysclock_init>
c010002c:	eb00065b 	bl	c01019a0 <sysclock_enable>
c0100030:	eafffffe 	b	c0100030 <main+0x10>

c0100034 <kputchar>:
c0100034:	e92d4800 	push	{fp, lr}
c0100038:	e28db004 	add	fp, sp, #4
c010003c:	e24dd008 	sub	sp, sp, #8
c0100040:	e1a03000 	mov	r3, r0
c0100044:	e54b3005 	strb	r3, [fp, #-5]
c0100048:	e30c3410 	movw	r3, #50192	; 0xc410
c010004c:	e34c3010 	movt	r3, #49168	; 0xc010
c0100050:	e5933000 	ldr	r3, [r3]
c0100054:	e30023fa 	movw	r2, #1018	; 0x3fa
c0100058:	e1530002 	cmp	r3, r2
c010005c:	8a00000b 	bhi	c0100090 <kputchar+0x5c>
c0100060:	e30c340c 	movw	r3, #50188	; 0xc40c
c0100064:	e34c3010 	movt	r3, #49168	; 0xc010
c0100068:	e5931000 	ldr	r1, [r3]
c010006c:	e30c3410 	movw	r3, #50192	; 0xc410
c0100070:	e34c3010 	movt	r3, #49168	; 0xc010
c0100074:	e5932000 	ldr	r2, [r3]
c0100078:	e2820001 	add	r0, r2, #1
c010007c:	e30c3410 	movw	r3, #50192	; 0xc410
c0100080:	e34c3010 	movt	r3, #49168	; 0xc010
c0100084:	e5830000 	str	r0, [r3]
c0100088:	e55b3005 	ldrb	r3, [fp, #-5]
c010008c:	e7c13002 	strb	r3, [r1, r2]
c0100090:	e30c3004 	movw	r3, #49156	; 0xc004
c0100094:	e34c3010 	movt	r3, #49168	; 0xc010
c0100098:	e5d33000 	ldrb	r3, [r3]
c010009c:	e3530001 	cmp	r3, #1
c01000a0:	1a000002 	bne	c01000b0 <kputchar+0x7c>
c01000a4:	e55b3005 	ldrb	r3, [fp, #-5]
c01000a8:	e1a00003 	mov	r0, r3
c01000ac:	eb0006ea 	bl	c0101c5c <arch_debugprint_putc>
c01000b0:	e320f000 	nop	{0}
c01000b4:	e24bd004 	sub	sp, fp, #4
c01000b8:	e8bd8800 	pop	{fp, pc}

c01000bc <kprintf>:
c01000bc:	e92d000f 	push	{r0, r1, r2, r3}
c01000c0:	e92d4800 	push	{fp, lr}
c01000c4:	e28db004 	add	fp, sp, #4
c01000c8:	e24dd008 	sub	sp, sp, #8
c01000cc:	e30c0008 	movw	r0, #49160	; 0xc008
c01000d0:	e34c0010 	movt	r0, #49168	; 0xc010
c01000d4:	eb000696 	bl	c0101b34 <arch_spinlock_lock>
c01000d8:	e28b3008 	add	r3, fp, #8
c01000dc:	e50b300c 	str	r3, [fp, #-12]
c01000e0:	e51b200c 	ldr	r2, [fp, #-12]
c01000e4:	e59b1004 	ldr	r1, [fp, #4]
c01000e8:	e3a00000 	mov	r0, #0
c01000ec:	eb00019b 	bl	c0100760 <simple_vsprintf>
c01000f0:	e50b0008 	str	r0, [fp, #-8]
c01000f4:	e30c0008 	movw	r0, #49160	; 0xc008
c01000f8:	e34c0010 	movt	r0, #49168	; 0xc010
c01000fc:	eb00068d 	bl	c0101b38 <arch_spinlock_unlock>
c0100100:	e51b3008 	ldr	r3, [fp, #-8]
c0100104:	e1a00003 	mov	r0, r3
c0100108:	e24bd004 	sub	sp, fp, #4
c010010c:	e8bd4800 	pop	{fp, lr}
c0100110:	e28dd010 	add	sp, sp, #16
c0100114:	e12fff1e 	bx	lr

c0100118 <kdebuglog_init>:
c0100118:	e92d4800 	push	{fp, lr}
c010011c:	e28db004 	add	fp, sp, #4
c0100120:	e30c340c 	movw	r3, #50188	; 0xc40c
c0100124:	e34c3010 	movt	r3, #49168	; 0xc010
c0100128:	e30c200c 	movw	r2, #49164	; 0xc00c
c010012c:	e34c2010 	movt	r2, #49168	; 0xc010
c0100130:	e5832000 	str	r2, [r3]
c0100134:	e30c3410 	movw	r3, #50192	; 0xc410
c0100138:	e34c3010 	movt	r3, #49168	; 0xc010
c010013c:	e3a02000 	mov	r2, #0
c0100140:	e5832000 	str	r2, [r3]
c0100144:	e30c3004 	movw	r3, #49156	; 0xc004
c0100148:	e34c3010 	movt	r3, #49168	; 0xc010
c010014c:	e3a02001 	mov	r2, #1
c0100150:	e5c32000 	strb	r2, [r3]
c0100154:	eb0006dc 	bl	c0101ccc <arch_debugprint_init>
c0100158:	e30c0008 	movw	r0, #49160	; 0xc008
c010015c:	e34c0010 	movt	r0, #49168	; 0xc010
c0100160:	eb000672 	bl	c0101b30 <arch_spinlock_init>
c0100164:	e320f000 	nop	{0}
c0100168:	e8bd8800 	pop	{fp, pc}

c010016c <simple_outputchar>:
c010016c:	e92d4800 	push	{fp, lr}
c0100170:	e28db004 	add	fp, sp, #4
c0100174:	e24dd008 	sub	sp, sp, #8
c0100178:	e50b0008 	str	r0, [fp, #-8]
c010017c:	e1a03001 	mov	r3, r1
c0100180:	e54b3009 	strb	r3, [fp, #-9]
c0100184:	e51b3008 	ldr	r3, [fp, #-8]
c0100188:	e3530000 	cmp	r3, #0
c010018c:	0a000009 	beq	c01001b8 <simple_outputchar+0x4c>
c0100190:	e51b3008 	ldr	r3, [fp, #-8]
c0100194:	e5933000 	ldr	r3, [r3]
c0100198:	e55b2009 	ldrb	r2, [fp, #-9]
c010019c:	e5c32000 	strb	r2, [r3]
c01001a0:	e51b3008 	ldr	r3, [fp, #-8]
c01001a4:	e5933000 	ldr	r3, [r3]
c01001a8:	e2832001 	add	r2, r3, #1
c01001ac:	e51b3008 	ldr	r3, [fp, #-8]
c01001b0:	e5832000 	str	r2, [r3]
c01001b4:	ea000002 	b	c01001c4 <simple_outputchar+0x58>
c01001b8:	e55b3009 	ldrb	r3, [fp, #-9]
c01001bc:	e1a00003 	mov	r0, r3
c01001c0:	ebffff9b 	bl	c0100034 <kputchar>
c01001c4:	e320f000 	nop	{0}
c01001c8:	e24bd004 	sub	sp, fp, #4
c01001cc:	e8bd8800 	pop	{fp, pc}

c01001d0 <print_double_float>:
c01001d0:	e92d4830 	push	{r4, r5, fp, lr}
c01001d4:	e28db00c 	add	fp, sp, #12
c01001d8:	e24dd018 	sub	sp, sp, #24
c01001dc:	e14b01fc 	strd	r0, [fp, #-28]	; 0xffffffe4
c01001e0:	e50b2020 	str	r2, [fp, #-32]	; 0xffffffe0
c01001e4:	e3a03001 	mov	r3, #1
c01001e8:	e50b3010 	str	r3, [fp, #-16]
c01001ec:	e51b3020 	ldr	r3, [fp, #-32]	; 0xffffffe0
c01001f0:	e3530000 	cmp	r3, #0
c01001f4:	1a000001 	bne	c0100200 <print_double_float+0x30>
c01001f8:	e3a03032 	mov	r3, #50	; 0x32
c01001fc:	e50b3020 	str	r3, [fp, #-32]	; 0xffffffe0
c0100200:	e51b3020 	ldr	r3, [fp, #-32]	; 0xffffffe0
c0100204:	e3530032 	cmp	r3, #50	; 0x32
c0100208:	9a000001 	bls	c0100214 <print_double_float+0x44>
c010020c:	e3a03032 	mov	r3, #50	; 0x32
c0100210:	e50b3020 	str	r3, [fp, #-32]	; 0xffffffe0
c0100214:	e3a02000 	mov	r2, #0
c0100218:	e3a03000 	mov	r3, #0
c010021c:	e14b01dc 	ldrd	r0, [fp, #-28]	; 0xffffffe4
c0100220:	fa000df6 	blx	c0103a00 <__aeabi_dcmplt>
c0100224:	e1a03000 	mov	r3, r0
c0100228:	e3530000 	cmp	r3, #0
c010022c:	0a000006 	beq	c010024c <print_double_float+0x7c>
c0100230:	e3030bc8 	movw	r0, #15304	; 0x3bc8
c0100234:	e34c0010 	movt	r0, #49168	; 0xc010
c0100238:	ebffff9f 	bl	c01000bc <kprintf>
c010023c:	e51b401c 	ldr	r4, [fp, #-28]	; 0xffffffe4
c0100240:	e51b3018 	ldr	r3, [fp, #-24]	; 0xffffffe8
c0100244:	e2235102 	eor	r5, r3, #-2147483648	; 0x80000000
c0100248:	e14b41fc 	strd	r4, [fp, #-28]	; 0xffffffe4
c010024c:	e14b21dc 	ldrd	r2, [fp, #-28]	; 0xffffffe4
c0100250:	e14b01dc 	ldrd	r0, [fp, #-28]	; 0xffffffe4
c0100254:	fa000de4 	blx	c01039ec <__aeabi_dcmpeq>
c0100258:	e1a03000 	mov	r3, r0
c010025c:	e3530000 	cmp	r3, #0
c0100260:	1a000003 	bne	c0100274 <print_double_float+0xa4>
c0100264:	e3030bcc 	movw	r0, #15308	; 0x3bcc
c0100268:	e34c0010 	movt	r0, #49168	; 0xc010
c010026c:	ebffff92 	bl	c01000bc <kprintf>
c0100270:	ea000057 	b	c01003d4 <print_double_float+0x204>
c0100274:	e14b01dc 	ldrd	r0, [fp, #-28]	; 0xffffffe4
c0100278:	fa000df4 	blx	c0103a50 <__aeabi_d2iz>
c010027c:	e1a03000 	mov	r3, r0
c0100280:	e1a01003 	mov	r1, r3
c0100284:	e3030bd0 	movw	r0, #15312	; 0x3bd0
c0100288:	e34c0010 	movt	r0, #49168	; 0xc010
c010028c:	ebffff8a 	bl	c01000bc <kprintf>
c0100290:	e51b3020 	ldr	r3, [fp, #-32]	; 0xffffffe0
c0100294:	e3530000 	cmp	r3, #0
c0100298:	0a00004a 	beq	c01003c8 <print_double_float+0x1f8>
c010029c:	e3030bd4 	movw	r0, #15316	; 0x3bd4
c01002a0:	e34c0010 	movt	r0, #49168	; 0xc010
c01002a4:	ebffff84 	bl	c01000bc <kprintf>
c01002a8:	e14b01dc 	ldrd	r0, [fp, #-28]	; 0xffffffe4
c01002ac:	fa000de7 	blx	c0103a50 <__aeabi_d2iz>
c01002b0:	e1a03000 	mov	r3, r0
c01002b4:	e1a00003 	mov	r0, r3
c01002b8:	fa000d6b 	blx	c010386c <__aeabi_i2d>
c01002bc:	e1a02000 	mov	r2, r0
c01002c0:	e1a03001 	mov	r3, r1
c01002c4:	e14b01dc 	ldrd	r0, [fp, #-28]	; 0xffffffe4
c01002c8:	fa000cc0 	blx	c01035d0 <__aeabi_dsub>
c01002cc:	e1a02000 	mov	r2, r0
c01002d0:	e1a03001 	mov	r3, r1
c01002d4:	e14b21fc 	strd	r2, [fp, #-28]	; 0xffffffe4
c01002d8:	ea000026 	b	c0100378 <print_double_float+0x1a8>
c01002dc:	e3a02000 	mov	r2, #0
c01002e0:	e3a03000 	mov	r3, #0
c01002e4:	e3443024 	movt	r3, #16420	; 0x4024
c01002e8:	e14b01dc 	ldrd	r0, [fp, #-28]	; 0xffffffe4
c01002ec:	fa000bf4 	blx	c01032c4 <__aeabi_dmul>
c01002f0:	e1a02000 	mov	r2, r0
c01002f4:	e1a03001 	mov	r3, r1
c01002f8:	e14b21fc 	strd	r2, [fp, #-28]	; 0xffffffe4
c01002fc:	e14b01dc 	ldrd	r0, [fp, #-28]	; 0xffffffe4
c0100300:	fa000dd2 	blx	c0103a50 <__aeabi_d2iz>
c0100304:	e1a03000 	mov	r3, r0
c0100308:	e1a01003 	mov	r1, r3
c010030c:	e3030bd0 	movw	r0, #15312	; 0x3bd0
c0100310:	e34c0010 	movt	r0, #49168	; 0xc010
c0100314:	ebffff68 	bl	c01000bc <kprintf>
c0100318:	e14b01dc 	ldrd	r0, [fp, #-28]	; 0xffffffe4
c010031c:	fa000dcb 	blx	c0103a50 <__aeabi_d2iz>
c0100320:	e1a03000 	mov	r3, r0
c0100324:	e1a00003 	mov	r0, r3
c0100328:	fa000d4f 	blx	c010386c <__aeabi_i2d>
c010032c:	e1a02000 	mov	r2, r0
c0100330:	e1a03001 	mov	r3, r1
c0100334:	e14b01dc 	ldrd	r0, [fp, #-28]	; 0xffffffe4
c0100338:	fa000dab 	blx	c01039ec <__aeabi_dcmpeq>
c010033c:	e1a03000 	mov	r3, r0
c0100340:	e3530000 	cmp	r3, #0
c0100344:	1a000021 	bne	c01003d0 <print_double_float+0x200>
c0100348:	e14b01dc 	ldrd	r0, [fp, #-28]	; 0xffffffe4
c010034c:	fa000dbf 	blx	c0103a50 <__aeabi_d2iz>
c0100350:	e1a03000 	mov	r3, r0
c0100354:	e1a00003 	mov	r0, r3
c0100358:	fa000d43 	blx	c010386c <__aeabi_i2d>
c010035c:	e1a02000 	mov	r2, r0
c0100360:	e1a03001 	mov	r3, r1
c0100364:	e14b01dc 	ldrd	r0, [fp, #-28]	; 0xffffffe4
c0100368:	fa000c98 	blx	c01035d0 <__aeabi_dsub>
c010036c:	e1a02000 	mov	r2, r0
c0100370:	e1a03001 	mov	r3, r1
c0100374:	e14b21fc 	strd	r2, [fp, #-28]	; 0xffffffe4
c0100378:	e14b01dc 	ldrd	r0, [fp, #-28]	; 0xffffffe4
c010037c:	fa000db3 	blx	c0103a50 <__aeabi_d2iz>
c0100380:	e1a03000 	mov	r3, r0
c0100384:	e1a00003 	mov	r0, r3
c0100388:	fa000d37 	blx	c010386c <__aeabi_i2d>
c010038c:	e1a02000 	mov	r2, r0
c0100390:	e1a03001 	mov	r3, r1
c0100394:	e14b01dc 	ldrd	r0, [fp, #-28]	; 0xffffffe4
c0100398:	fa000da7 	blx	c0103a3c <__aeabi_dcmpgt>
c010039c:	e1a03000 	mov	r3, r0
c01003a0:	e3530000 	cmp	r3, #0
c01003a4:	0a00000a 	beq	c01003d4 <print_double_float+0x204>
c01003a8:	e51b3010 	ldr	r3, [fp, #-16]
c01003ac:	e2832001 	add	r2, r3, #1
c01003b0:	e50b2010 	str	r2, [fp, #-16]
c01003b4:	e51b2020 	ldr	r2, [fp, #-32]	; 0xffffffe0
c01003b8:	e2822001 	add	r2, r2, #1
c01003bc:	e1530002 	cmp	r3, r2
c01003c0:	3affffc5 	bcc	c01002dc <print_double_float+0x10c>
c01003c4:	ea000002 	b	c01003d4 <print_double_float+0x204>
c01003c8:	e320f000 	nop	{0}
c01003cc:	ea000000 	b	c01003d4 <print_double_float+0x204>
c01003d0:	e320f000 	nop	{0}
c01003d4:	e24bd00c 	sub	sp, fp, #12
c01003d8:	e8bd8830 	pop	{r4, r5, fp, pc}

c01003dc <prints>:
c01003dc:	e92d4800 	push	{fp, lr}
c01003e0:	e28db004 	add	fp, sp, #4
c01003e4:	e24dd020 	sub	sp, sp, #32
c01003e8:	e50b0018 	str	r0, [fp, #-24]	; 0xffffffe8
c01003ec:	e50b101c 	str	r1, [fp, #-28]	; 0xffffffe4
c01003f0:	e50b2020 	str	r2, [fp, #-32]	; 0xffffffe0
c01003f4:	e50b3024 	str	r3, [fp, #-36]	; 0xffffffdc
c01003f8:	e3a03000 	mov	r3, #0
c01003fc:	e50b3008 	str	r3, [fp, #-8]
c0100400:	e3a03020 	mov	r3, #32
c0100404:	e50b300c 	str	r3, [fp, #-12]
c0100408:	e51b3020 	ldr	r3, [fp, #-32]	; 0xffffffe0
c010040c:	e3530000 	cmp	r3, #0
c0100410:	da00001f 	ble	c0100494 <prints+0xb8>
c0100414:	e3a03000 	mov	r3, #0
c0100418:	e50b3010 	str	r3, [fp, #-16]
c010041c:	e51b301c 	ldr	r3, [fp, #-28]	; 0xffffffe4
c0100420:	e50b3014 	str	r3, [fp, #-20]	; 0xffffffec
c0100424:	ea000005 	b	c0100440 <prints+0x64>
c0100428:	e51b3010 	ldr	r3, [fp, #-16]
c010042c:	e2833001 	add	r3, r3, #1
c0100430:	e50b3010 	str	r3, [fp, #-16]
c0100434:	e51b3014 	ldr	r3, [fp, #-20]	; 0xffffffec
c0100438:	e2833001 	add	r3, r3, #1
c010043c:	e50b3014 	str	r3, [fp, #-20]	; 0xffffffec
c0100440:	e51b3014 	ldr	r3, [fp, #-20]	; 0xffffffec
c0100444:	e5d33000 	ldrb	r3, [r3]
c0100448:	e3530000 	cmp	r3, #0
c010044c:	1afffff5 	bne	c0100428 <prints+0x4c>
c0100450:	e51b2010 	ldr	r2, [fp, #-16]
c0100454:	e51b3020 	ldr	r3, [fp, #-32]	; 0xffffffe0
c0100458:	e1520003 	cmp	r2, r3
c010045c:	ba000002 	blt	c010046c <prints+0x90>
c0100460:	e3a03000 	mov	r3, #0
c0100464:	e50b3020 	str	r3, [fp, #-32]	; 0xffffffe0
c0100468:	ea000003 	b	c010047c <prints+0xa0>
c010046c:	e51b2020 	ldr	r2, [fp, #-32]	; 0xffffffe0
c0100470:	e51b3010 	ldr	r3, [fp, #-16]
c0100474:	e0423003 	sub	r3, r2, r3
c0100478:	e50b3020 	str	r3, [fp, #-32]	; 0xffffffe0
c010047c:	e51b3024 	ldr	r3, [fp, #-36]	; 0xffffffdc
c0100480:	e2033001 	and	r3, r3, #1
c0100484:	e3530000 	cmp	r3, #0
c0100488:	0a000001 	beq	c0100494 <prints+0xb8>
c010048c:	e3a03030 	mov	r3, #48	; 0x30
c0100490:	e50b300c 	str	r3, [fp, #-12]
c0100494:	e51b3024 	ldr	r3, [fp, #-36]	; 0xffffffdc
c0100498:	e2033002 	and	r3, r3, #2
c010049c:	e3530000 	cmp	r3, #0
c01004a0:	1a00001a 	bne	c0100510 <prints+0x134>
c01004a4:	ea00000a 	b	c01004d4 <prints+0xf8>
c01004a8:	e51b300c 	ldr	r3, [fp, #-12]
c01004ac:	e6ef3073 	uxtb	r3, r3
c01004b0:	e1a01003 	mov	r1, r3
c01004b4:	e51b0018 	ldr	r0, [fp, #-24]	; 0xffffffe8
c01004b8:	ebffff2b 	bl	c010016c <simple_outputchar>
c01004bc:	e51b3008 	ldr	r3, [fp, #-8]
c01004c0:	e2833001 	add	r3, r3, #1
c01004c4:	e50b3008 	str	r3, [fp, #-8]
c01004c8:	e51b3020 	ldr	r3, [fp, #-32]	; 0xffffffe0
c01004cc:	e2433001 	sub	r3, r3, #1
c01004d0:	e50b3020 	str	r3, [fp, #-32]	; 0xffffffe0
c01004d4:	e51b3020 	ldr	r3, [fp, #-32]	; 0xffffffe0
c01004d8:	e3530000 	cmp	r3, #0
c01004dc:	cafffff1 	bgt	c01004a8 <prints+0xcc>
c01004e0:	ea00000a 	b	c0100510 <prints+0x134>
c01004e4:	e51b301c 	ldr	r3, [fp, #-28]	; 0xffffffe4
c01004e8:	e5d33000 	ldrb	r3, [r3]
c01004ec:	e1a01003 	mov	r1, r3
c01004f0:	e51b0018 	ldr	r0, [fp, #-24]	; 0xffffffe8
c01004f4:	ebffff1c 	bl	c010016c <simple_outputchar>
c01004f8:	e51b3008 	ldr	r3, [fp, #-8]
c01004fc:	e2833001 	add	r3, r3, #1
c0100500:	e50b3008 	str	r3, [fp, #-8]
c0100504:	e51b301c 	ldr	r3, [fp, #-28]	; 0xffffffe4
c0100508:	e2833001 	add	r3, r3, #1
c010050c:	e50b301c 	str	r3, [fp, #-28]	; 0xffffffe4
c0100510:	e51b301c 	ldr	r3, [fp, #-28]	; 0xffffffe4
c0100514:	e5d33000 	ldrb	r3, [r3]
c0100518:	e3530000 	cmp	r3, #0
c010051c:	1afffff0 	bne	c01004e4 <prints+0x108>
c0100520:	ea00000a 	b	c0100550 <prints+0x174>
c0100524:	e51b300c 	ldr	r3, [fp, #-12]
c0100528:	e6ef3073 	uxtb	r3, r3
c010052c:	e1a01003 	mov	r1, r3
c0100530:	e51b0018 	ldr	r0, [fp, #-24]	; 0xffffffe8
c0100534:	ebffff0c 	bl	c010016c <simple_outputchar>
c0100538:	e51b3008 	ldr	r3, [fp, #-8]
c010053c:	e2833001 	add	r3, r3, #1
c0100540:	e50b3008 	str	r3, [fp, #-8]
c0100544:	e51b3020 	ldr	r3, [fp, #-32]	; 0xffffffe0
c0100548:	e2433001 	sub	r3, r3, #1
c010054c:	e50b3020 	str	r3, [fp, #-32]	; 0xffffffe0
c0100550:	e51b3020 	ldr	r3, [fp, #-32]	; 0xffffffe0
c0100554:	e3530000 	cmp	r3, #0
c0100558:	cafffff1 	bgt	c0100524 <prints+0x148>
c010055c:	e51b3008 	ldr	r3, [fp, #-8]
c0100560:	e1a00003 	mov	r0, r3
c0100564:	e24bd004 	sub	sp, fp, #4
c0100568:	e8bd8800 	pop	{fp, pc}

c010056c <simple_outputi>:
c010056c:	e92d4bf0 	push	{r4, r5, r6, r7, r8, r9, fp, lr}
c0100570:	e28db01c 	add	fp, sp, #28
c0100574:	e24dd068 	sub	sp, sp, #104	; 0x68
c0100578:	e50b0078 	str	r0, [fp, #-120]	; 0xffffff88
c010057c:	e14b28f4 	strd	r2, [fp, #-132]	; 0xffffff7c
c0100580:	e3a03000 	mov	r3, #0
c0100584:	e50b3028 	str	r3, [fp, #-40]	; 0xffffffd8
c0100588:	e3a03000 	mov	r3, #0
c010058c:	e50b302c 	str	r3, [fp, #-44]	; 0xffffffd4
c0100590:	e14b28d4 	ldrd	r2, [fp, #-132]	; 0xffffff7c
c0100594:	e14b23f4 	strd	r2, [fp, #-52]	; 0xffffffcc
c0100598:	e14b28d4 	ldrd	r2, [fp, #-132]	; 0xffffff7c
c010059c:	e1923003 	orrs	r3, r2, r3
c01005a0:	1a00000a 	bne	c01005d0 <simple_outputi+0x64>
c01005a4:	e3a03030 	mov	r3, #48	; 0x30
c01005a8:	e54b3074 	strb	r3, [fp, #-116]	; 0xffffff8c
c01005ac:	e3a03000 	mov	r3, #0
c01005b0:	e54b3073 	strb	r3, [fp, #-115]	; 0xffffff8d
c01005b4:	e24b1074 	sub	r1, fp, #116	; 0x74
c01005b8:	e59b3010 	ldr	r3, [fp, #16]
c01005bc:	e59b200c 	ldr	r2, [fp, #12]
c01005c0:	e51b0078 	ldr	r0, [fp, #-120]	; 0xffffff88
c01005c4:	ebffff84 	bl	c01003dc <prints>
c01005c8:	e1a03000 	mov	r3, r0
c01005cc:	ea000060 	b	c0100754 <simple_outputi+0x1e8>
c01005d0:	e59b3008 	ldr	r3, [fp, #8]
c01005d4:	e3530000 	cmp	r3, #0
c01005d8:	0a00000b 	beq	c010060c <simple_outputi+0xa0>
c01005dc:	e59b3004 	ldr	r3, [fp, #4]
c01005e0:	e353000a 	cmp	r3, #10
c01005e4:	1a000008 	bne	c010060c <simple_outputi+0xa0>
c01005e8:	e14b28d4 	ldrd	r2, [fp, #-132]	; 0xffffff7c
c01005ec:	e3530000 	cmp	r3, #0
c01005f0:	aa000005 	bge	c010060c <simple_outputi+0xa0>
c01005f4:	e3a03001 	mov	r3, #1
c01005f8:	e50b3028 	str	r3, [fp, #-40]	; 0xffffffd8
c01005fc:	e14b28d4 	ldrd	r2, [fp, #-132]	; 0xffffff7c
c0100600:	e2724000 	rsbs	r4, r2, #0
c0100604:	e2e35000 	rsc	r5, r3, #0
c0100608:	e14b43f4 	strd	r4, [fp, #-52]	; 0xffffffcc
c010060c:	e24b3074 	sub	r3, fp, #116	; 0x74
c0100610:	e283303f 	add	r3, r3, #63	; 0x3f
c0100614:	e50b3020 	str	r3, [fp, #-32]	; 0xffffffe0
c0100618:	e51b3020 	ldr	r3, [fp, #-32]	; 0xffffffe0
c010061c:	e3a02000 	mov	r2, #0
c0100620:	e5c32000 	strb	r2, [r3]
c0100624:	ea000025 	b	c01006c0 <simple_outputi+0x154>
c0100628:	e59b3004 	ldr	r3, [fp, #4]
c010062c:	e1a02fc3 	asr	r2, r3, #31
c0100630:	e1a06003 	mov	r6, r3
c0100634:	e1a07002 	mov	r7, r2
c0100638:	e14b03d4 	ldrd	r0, [fp, #-52]	; 0xffffffcc
c010063c:	e1a02006 	mov	r2, r6
c0100640:	e1a03007 	mov	r3, r7
c0100644:	fa000d15 	blx	c0103aa0 <__aeabi_uldivmod>
c0100648:	e1a03002 	mov	r3, r2
c010064c:	e50b3024 	str	r3, [fp, #-36]	; 0xffffffdc
c0100650:	e51b3024 	ldr	r3, [fp, #-36]	; 0xffffffdc
c0100654:	e3530009 	cmp	r3, #9
c0100658:	da000004 	ble	c0100670 <simple_outputi+0x104>
c010065c:	e59b3014 	ldr	r3, [fp, #20]
c0100660:	e243303a 	sub	r3, r3, #58	; 0x3a
c0100664:	e51b2024 	ldr	r2, [fp, #-36]	; 0xffffffdc
c0100668:	e0823003 	add	r3, r2, r3
c010066c:	e50b3024 	str	r3, [fp, #-36]	; 0xffffffdc
c0100670:	e51b3024 	ldr	r3, [fp, #-36]	; 0xffffffdc
c0100674:	e6ef3073 	uxtb	r3, r3
c0100678:	e51b2020 	ldr	r2, [fp, #-32]	; 0xffffffe0
c010067c:	e2422001 	sub	r2, r2, #1
c0100680:	e50b2020 	str	r2, [fp, #-32]	; 0xffffffe0
c0100684:	e2833030 	add	r3, r3, #48	; 0x30
c0100688:	e6ef2073 	uxtb	r2, r3
c010068c:	e51b3020 	ldr	r3, [fp, #-32]	; 0xffffffe0
c0100690:	e5c32000 	strb	r2, [r3]
c0100694:	e59b3004 	ldr	r3, [fp, #4]
c0100698:	e1a02fc3 	asr	r2, r3, #31
c010069c:	e1a08003 	mov	r8, r3
c01006a0:	e1a09002 	mov	r9, r2
c01006a4:	e1a02008 	mov	r2, r8
c01006a8:	e1a03009 	mov	r3, r9
c01006ac:	e14b03d4 	ldrd	r0, [fp, #-52]	; 0xffffffcc
c01006b0:	fa000cfa 	blx	c0103aa0 <__aeabi_uldivmod>
c01006b4:	e1a02000 	mov	r2, r0
c01006b8:	e1a03001 	mov	r3, r1
c01006bc:	e14b23f4 	strd	r2, [fp, #-52]	; 0xffffffcc
c01006c0:	e14b23d4 	ldrd	r2, [fp, #-52]	; 0xffffffcc
c01006c4:	e1923003 	orrs	r3, r2, r3
c01006c8:	1affffd6 	bne	c0100628 <simple_outputi+0xbc>
c01006cc:	e51b3028 	ldr	r3, [fp, #-40]	; 0xffffffd8
c01006d0:	e3530000 	cmp	r3, #0
c01006d4:	0a000016 	beq	c0100734 <simple_outputi+0x1c8>
c01006d8:	e59b300c 	ldr	r3, [fp, #12]
c01006dc:	e3530000 	cmp	r3, #0
c01006e0:	0a00000d 	beq	c010071c <simple_outputi+0x1b0>
c01006e4:	e59b3010 	ldr	r3, [fp, #16]
c01006e8:	e2033001 	and	r3, r3, #1
c01006ec:	e3530000 	cmp	r3, #0
c01006f0:	0a000009 	beq	c010071c <simple_outputi+0x1b0>
c01006f4:	e3a0102d 	mov	r1, #45	; 0x2d
c01006f8:	e51b0078 	ldr	r0, [fp, #-120]	; 0xffffff88
c01006fc:	ebfffe9a 	bl	c010016c <simple_outputchar>
c0100700:	e51b302c 	ldr	r3, [fp, #-44]	; 0xffffffd4
c0100704:	e2833001 	add	r3, r3, #1
c0100708:	e50b302c 	str	r3, [fp, #-44]	; 0xffffffd4
c010070c:	e59b300c 	ldr	r3, [fp, #12]
c0100710:	e2433001 	sub	r3, r3, #1
c0100714:	e58b300c 	str	r3, [fp, #12]
c0100718:	ea000005 	b	c0100734 <simple_outputi+0x1c8>
c010071c:	e51b3020 	ldr	r3, [fp, #-32]	; 0xffffffe0
c0100720:	e2433001 	sub	r3, r3, #1
c0100724:	e50b3020 	str	r3, [fp, #-32]	; 0xffffffe0
c0100728:	e51b3020 	ldr	r3, [fp, #-32]	; 0xffffffe0
c010072c:	e3a0202d 	mov	r2, #45	; 0x2d
c0100730:	e5c32000 	strb	r2, [r3]
c0100734:	e59b3010 	ldr	r3, [fp, #16]
c0100738:	e59b200c 	ldr	r2, [fp, #12]
c010073c:	e51b1020 	ldr	r1, [fp, #-32]	; 0xffffffe0
c0100740:	e51b0078 	ldr	r0, [fp, #-120]	; 0xffffff88
c0100744:	ebffff24 	bl	c01003dc <prints>
c0100748:	e1a02000 	mov	r2, r0
c010074c:	e51b302c 	ldr	r3, [fp, #-44]	; 0xffffffd4
c0100750:	e0823003 	add	r3, r2, r3
c0100754:	e1a00003 	mov	r0, r3
c0100758:	e24bd01c 	sub	sp, fp, #28
c010075c:	e8bd8bf0 	pop	{r4, r5, r6, r7, r8, r9, fp, pc}

c0100760 <simple_vsprintf>:
c0100760:	e92d4bf0 	push	{r4, r5, r6, r7, r8, r9, fp, lr}
c0100764:	e28db01c 	add	fp, sp, #28
c0100768:	e24dd078 	sub	sp, sp, #120	; 0x78
c010076c:	e50b0038 	str	r0, [fp, #-56]	; 0xffffffc8
c0100770:	e50b103c 	str	r1, [fp, #-60]	; 0xffffffc4
c0100774:	e50b2040 	str	r2, [fp, #-64]	; 0xffffffc0
c0100778:	e3a03000 	mov	r3, #0
c010077c:	e50b3028 	str	r3, [fp, #-40]	; 0xffffffd8
c0100780:	ea000357 	b	c01014e4 <simple_vsprintf+0xd84>
c0100784:	e51b303c 	ldr	r3, [fp, #-60]	; 0xffffffc4
c0100788:	e5d33000 	ldrb	r3, [r3]
c010078c:	e3530025 	cmp	r3, #37	; 0x25
c0100790:	1a000343 	bne	c01014a4 <simple_vsprintf+0xd44>
c0100794:	e51b303c 	ldr	r3, [fp, #-60]	; 0xffffffc4
c0100798:	e2833001 	add	r3, r3, #1
c010079c:	e50b303c 	str	r3, [fp, #-60]	; 0xffffffc4
c01007a0:	e3a03000 	mov	r3, #0
c01007a4:	e50b3024 	str	r3, [fp, #-36]	; 0xffffffdc
c01007a8:	e51b3024 	ldr	r3, [fp, #-36]	; 0xffffffdc
c01007ac:	e50b3020 	str	r3, [fp, #-32]	; 0xffffffe0
c01007b0:	e51b303c 	ldr	r3, [fp, #-60]	; 0xffffffc4
c01007b4:	e5d33000 	ldrb	r3, [r3]
c01007b8:	e3530000 	cmp	r3, #0
c01007bc:	0a00034d 	beq	c01014f8 <simple_vsprintf+0xd98>
c01007c0:	e51b303c 	ldr	r3, [fp, #-60]	; 0xffffffc4
c01007c4:	e5d33000 	ldrb	r3, [r3]
c01007c8:	e3530025 	cmp	r3, #37	; 0x25
c01007cc:	0a000336 	beq	c01014ac <simple_vsprintf+0xd4c>
c01007d0:	e51b303c 	ldr	r3, [fp, #-60]	; 0xffffffc4
c01007d4:	e5d33000 	ldrb	r3, [r3]
c01007d8:	e353002d 	cmp	r3, #45	; 0x2d
c01007dc:	1a00000b 	bne	c0100810 <simple_vsprintf+0xb0>
c01007e0:	e51b303c 	ldr	r3, [fp, #-60]	; 0xffffffc4
c01007e4:	e2833001 	add	r3, r3, #1
c01007e8:	e50b303c 	str	r3, [fp, #-60]	; 0xffffffc4
c01007ec:	e3a03002 	mov	r3, #2
c01007f0:	e50b3024 	str	r3, [fp, #-36]	; 0xffffffdc
c01007f4:	ea000005 	b	c0100810 <simple_vsprintf+0xb0>
c01007f8:	e51b303c 	ldr	r3, [fp, #-60]	; 0xffffffc4
c01007fc:	e2833001 	add	r3, r3, #1
c0100800:	e50b303c 	str	r3, [fp, #-60]	; 0xffffffc4
c0100804:	e51b3024 	ldr	r3, [fp, #-36]	; 0xffffffdc
c0100808:	e3833001 	orr	r3, r3, #1
c010080c:	e50b3024 	str	r3, [fp, #-36]	; 0xffffffdc
c0100810:	e51b303c 	ldr	r3, [fp, #-60]	; 0xffffffc4
c0100814:	e5d33000 	ldrb	r3, [r3]
c0100818:	e3530030 	cmp	r3, #48	; 0x30
c010081c:	0afffff5 	beq	c01007f8 <simple_vsprintf+0x98>
c0100820:	e51b303c 	ldr	r3, [fp, #-60]	; 0xffffffc4
c0100824:	e5d33000 	ldrb	r3, [r3]
c0100828:	e353002a 	cmp	r3, #42	; 0x2a
c010082c:	1a000017 	bne	c0100890 <simple_vsprintf+0x130>
c0100830:	e51b2040 	ldr	r2, [fp, #-64]	; 0xffffffc0
c0100834:	e2823004 	add	r3, r2, #4
c0100838:	e50b3040 	str	r3, [fp, #-64]	; 0xffffffc0
c010083c:	e5923000 	ldr	r3, [r2]
c0100840:	e50b3020 	str	r3, [fp, #-32]	; 0xffffffe0
c0100844:	e51b303c 	ldr	r3, [fp, #-60]	; 0xffffffc4
c0100848:	e2833001 	add	r3, r3, #1
c010084c:	e50b303c 	str	r3, [fp, #-60]	; 0xffffffc4
c0100850:	ea000016 	b	c01008b0 <simple_vsprintf+0x150>
c0100854:	e51b2020 	ldr	r2, [fp, #-32]	; 0xffffffe0
c0100858:	e1a03002 	mov	r3, r2
c010085c:	e1a03103 	lsl	r3, r3, #2
c0100860:	e0833002 	add	r3, r3, r2
c0100864:	e1a03083 	lsl	r3, r3, #1
c0100868:	e50b3020 	str	r3, [fp, #-32]	; 0xffffffe0
c010086c:	e51b303c 	ldr	r3, [fp, #-60]	; 0xffffffc4
c0100870:	e5d33000 	ldrb	r3, [r3]
c0100874:	e2432030 	sub	r2, r3, #48	; 0x30
c0100878:	e51b3020 	ldr	r3, [fp, #-32]	; 0xffffffe0
c010087c:	e0833002 	add	r3, r3, r2
c0100880:	e50b3020 	str	r3, [fp, #-32]	; 0xffffffe0
c0100884:	e51b303c 	ldr	r3, [fp, #-60]	; 0xffffffc4
c0100888:	e2833001 	add	r3, r3, #1
c010088c:	e50b303c 	str	r3, [fp, #-60]	; 0xffffffc4
c0100890:	e51b303c 	ldr	r3, [fp, #-60]	; 0xffffffc4
c0100894:	e5d33000 	ldrb	r3, [r3]
c0100898:	e353002f 	cmp	r3, #47	; 0x2f
c010089c:	9a000003 	bls	c01008b0 <simple_vsprintf+0x150>
c01008a0:	e51b303c 	ldr	r3, [fp, #-60]	; 0xffffffc4
c01008a4:	e5d33000 	ldrb	r3, [r3]
c01008a8:	e3530039 	cmp	r3, #57	; 0x39
c01008ac:	9affffe8 	bls	c0100854 <simple_vsprintf+0xf4>
c01008b0:	e51b303c 	ldr	r3, [fp, #-60]	; 0xffffffc4
c01008b4:	e5d33000 	ldrb	r3, [r3]
c01008b8:	e2433058 	sub	r3, r3, #88	; 0x58
c01008bc:	e3530020 	cmp	r3, #32
c01008c0:	979ff103 	ldrls	pc, [pc, r3, lsl #2]
c01008c4:	ea000302 	b	c01014d4 <simple_vsprintf+0xd74>
c01008c8:	c0100a9c 	.word	0xc0100a9c
c01008cc:	c01014d4 	.word	0xc01014d4
c01008d0:	c01014d4 	.word	0xc01014d4
c01008d4:	c01014d4 	.word	0xc01014d4
c01008d8:	c01014d4 	.word	0xc01014d4
c01008dc:	c01014d4 	.word	0xc01014d4
c01008e0:	c01014d4 	.word	0xc01014d4
c01008e4:	c01014d4 	.word	0xc01014d4
c01008e8:	c01014d4 	.word	0xc01014d4
c01008ec:	c01014d4 	.word	0xc01014d4
c01008f0:	c01014d4 	.word	0xc01014d4
c01008f4:	c0100b08 	.word	0xc0100b08
c01008f8:	c010094c 	.word	0xc010094c
c01008fc:	c01014d4 	.word	0xc01014d4
c0100900:	c0100b58 	.word	0xc0100b58
c0100904:	c01014d4 	.word	0xc01014d4
c0100908:	c0101050 	.word	0xc0101050
c010090c:	c01014d4 	.word	0xc01014d4
c0100910:	c01014d4 	.word	0xc01014d4
c0100914:	c01014d4 	.word	0xc01014d4
c0100918:	c0100bdc 	.word	0xc0100bdc
c010091c:	c01014d4 	.word	0xc01014d4
c0100920:	c01014d4 	.word	0xc01014d4
c0100924:	c01014d4 	.word	0xc01014d4
c0100928:	c01014d4 	.word	0xc01014d4
c010092c:	c01014d4 	.word	0xc01014d4
c0100930:	c01014d4 	.word	0xc01014d4
c0100934:	c0100b88 	.word	0xc0100b88
c0100938:	c01014d4 	.word	0xc01014d4
c010093c:	c01009bc 	.word	0xc01009bc
c0100940:	c01014d4 	.word	0xc01014d4
c0100944:	c01014d4 	.word	0xc01014d4
c0100948:	c0100a2c 	.word	0xc0100a2c
c010094c:	e51b2040 	ldr	r2, [fp, #-64]	; 0xffffffc0
c0100950:	e2823004 	add	r3, r2, #4
c0100954:	e50b3040 	str	r3, [fp, #-64]	; 0xffffffc0
c0100958:	e5923000 	ldr	r3, [r2]
c010095c:	e50b3034 	str	r3, [fp, #-52]	; 0xffffffcc
c0100960:	e51b3034 	ldr	r3, [fp, #-52]	; 0xffffffcc
c0100964:	e1a02fc3 	asr	r2, r3, #31
c0100968:	e1a04003 	mov	r4, r3
c010096c:	e1a05002 	mov	r5, r2
c0100970:	e3a03061 	mov	r3, #97	; 0x61
c0100974:	e58d3010 	str	r3, [sp, #16]
c0100978:	e51b3024 	ldr	r3, [fp, #-36]	; 0xffffffdc
c010097c:	e58d300c 	str	r3, [sp, #12]
c0100980:	e51b3020 	ldr	r3, [fp, #-32]	; 0xffffffe0
c0100984:	e58d3008 	str	r3, [sp, #8]
c0100988:	e3a03001 	mov	r3, #1
c010098c:	e58d3004 	str	r3, [sp, #4]
c0100990:	e3a0300a 	mov	r3, #10
c0100994:	e58d3000 	str	r3, [sp]
c0100998:	e1a02004 	mov	r2, r4
c010099c:	e1a03005 	mov	r3, r5
c01009a0:	e51b0038 	ldr	r0, [fp, #-56]	; 0xffffffc8
c01009a4:	ebfffef0 	bl	c010056c <simple_outputi>
c01009a8:	e1a02000 	mov	r2, r0
c01009ac:	e51b3028 	ldr	r3, [fp, #-40]	; 0xffffffd8
c01009b0:	e0833002 	add	r3, r3, r2
c01009b4:	e50b3028 	str	r3, [fp, #-40]	; 0xffffffd8
c01009b8:	ea0002c6 	b	c01014d8 <simple_vsprintf+0xd78>
c01009bc:	e51b2040 	ldr	r2, [fp, #-64]	; 0xffffffc0
c01009c0:	e2823004 	add	r3, r2, #4
c01009c4:	e50b3040 	str	r3, [fp, #-64]	; 0xffffffc0
c01009c8:	e5923000 	ldr	r3, [r2]
c01009cc:	e50b3034 	str	r3, [fp, #-52]	; 0xffffffcc
c01009d0:	e51b3034 	ldr	r3, [fp, #-52]	; 0xffffffcc
c01009d4:	e3a02000 	mov	r2, #0
c01009d8:	e1a06003 	mov	r6, r3
c01009dc:	e1a07002 	mov	r7, r2
c01009e0:	e3a03061 	mov	r3, #97	; 0x61
c01009e4:	e58d3010 	str	r3, [sp, #16]
c01009e8:	e51b3024 	ldr	r3, [fp, #-36]	; 0xffffffdc
c01009ec:	e58d300c 	str	r3, [sp, #12]
c01009f0:	e51b3020 	ldr	r3, [fp, #-32]	; 0xffffffe0
c01009f4:	e58d3008 	str	r3, [sp, #8]
c01009f8:	e3a03000 	mov	r3, #0
c01009fc:	e58d3004 	str	r3, [sp, #4]
c0100a00:	e3a0300a 	mov	r3, #10
c0100a04:	e58d3000 	str	r3, [sp]
c0100a08:	e1a02006 	mov	r2, r6
c0100a0c:	e1a03007 	mov	r3, r7
c0100a10:	e51b0038 	ldr	r0, [fp, #-56]	; 0xffffffc8
c0100a14:	ebfffed4 	bl	c010056c <simple_outputi>
c0100a18:	e1a02000 	mov	r2, r0
c0100a1c:	e51b3028 	ldr	r3, [fp, #-40]	; 0xffffffd8
c0100a20:	e0833002 	add	r3, r3, r2
c0100a24:	e50b3028 	str	r3, [fp, #-40]	; 0xffffffd8
c0100a28:	ea0002aa 	b	c01014d8 <simple_vsprintf+0xd78>
c0100a2c:	e51b2040 	ldr	r2, [fp, #-64]	; 0xffffffc0
c0100a30:	e2823004 	add	r3, r2, #4
c0100a34:	e50b3040 	str	r3, [fp, #-64]	; 0xffffffc0
c0100a38:	e5923000 	ldr	r3, [r2]
c0100a3c:	e50b3034 	str	r3, [fp, #-52]	; 0xffffffcc
c0100a40:	e51b3034 	ldr	r3, [fp, #-52]	; 0xffffffcc
c0100a44:	e3a02000 	mov	r2, #0
c0100a48:	e1a08003 	mov	r8, r3
c0100a4c:	e1a09002 	mov	r9, r2
c0100a50:	e3a03061 	mov	r3, #97	; 0x61
c0100a54:	e58d3010 	str	r3, [sp, #16]
c0100a58:	e51b3024 	ldr	r3, [fp, #-36]	; 0xffffffdc
c0100a5c:	e58d300c 	str	r3, [sp, #12]
c0100a60:	e51b3020 	ldr	r3, [fp, #-32]	; 0xffffffe0
c0100a64:	e58d3008 	str	r3, [sp, #8]
c0100a68:	e3a03000 	mov	r3, #0
c0100a6c:	e58d3004 	str	r3, [sp, #4]
c0100a70:	e3a03010 	mov	r3, #16
c0100a74:	e58d3000 	str	r3, [sp]
c0100a78:	e1a02008 	mov	r2, r8
c0100a7c:	e1a03009 	mov	r3, r9
c0100a80:	e51b0038 	ldr	r0, [fp, #-56]	; 0xffffffc8
c0100a84:	ebfffeb8 	bl	c010056c <simple_outputi>
c0100a88:	e1a02000 	mov	r2, r0
c0100a8c:	e51b3028 	ldr	r3, [fp, #-40]	; 0xffffffd8
c0100a90:	e0833002 	add	r3, r3, r2
c0100a94:	e50b3028 	str	r3, [fp, #-40]	; 0xffffffd8
c0100a98:	ea00028e 	b	c01014d8 <simple_vsprintf+0xd78>
c0100a9c:	e51b2040 	ldr	r2, [fp, #-64]	; 0xffffffc0
c0100aa0:	e2823004 	add	r3, r2, #4
c0100aa4:	e50b3040 	str	r3, [fp, #-64]	; 0xffffffc0
c0100aa8:	e5923000 	ldr	r3, [r2]
c0100aac:	e50b3034 	str	r3, [fp, #-52]	; 0xffffffcc
c0100ab0:	e51b3034 	ldr	r3, [fp, #-52]	; 0xffffffcc
c0100ab4:	e3a02000 	mov	r2, #0
c0100ab8:	e50b304c 	str	r3, [fp, #-76]	; 0xffffffb4
c0100abc:	e50b2048 	str	r2, [fp, #-72]	; 0xffffffb8
c0100ac0:	e3a03041 	mov	r3, #65	; 0x41
c0100ac4:	e58d3010 	str	r3, [sp, #16]
c0100ac8:	e51b3024 	ldr	r3, [fp, #-36]	; 0xffffffdc
c0100acc:	e58d300c 	str	r3, [sp, #12]
c0100ad0:	e51b3020 	ldr	r3, [fp, #-32]	; 0xffffffe0
c0100ad4:	e58d3008 	str	r3, [sp, #8]
c0100ad8:	e3a03000 	mov	r3, #0
c0100adc:	e58d3004 	str	r3, [sp, #4]
c0100ae0:	e3a03010 	mov	r3, #16
c0100ae4:	e58d3000 	str	r3, [sp]
c0100ae8:	e14b24dc 	ldrd	r2, [fp, #-76]	; 0xffffffb4
c0100aec:	e51b0038 	ldr	r0, [fp, #-56]	; 0xffffffc8
c0100af0:	ebfffe9d 	bl	c010056c <simple_outputi>
c0100af4:	e1a02000 	mov	r2, r0
c0100af8:	e51b3028 	ldr	r3, [fp, #-40]	; 0xffffffd8
c0100afc:	e0833002 	add	r3, r3, r2
c0100b00:	e50b3028 	str	r3, [fp, #-40]	; 0xffffffd8
c0100b04:	ea000273 	b	c01014d8 <simple_vsprintf+0xd78>
c0100b08:	e51b2040 	ldr	r2, [fp, #-64]	; 0xffffffc0
c0100b0c:	e2823004 	add	r3, r2, #4
c0100b10:	e50b3040 	str	r3, [fp, #-64]	; 0xffffffc0
c0100b14:	e5923000 	ldr	r3, [r2]
c0100b18:	e6ef3073 	uxtb	r3, r3
c0100b1c:	e54b3034 	strb	r3, [fp, #-52]	; 0xffffffcc
c0100b20:	e55b3034 	ldrb	r3, [fp, #-52]	; 0xffffffcc
c0100b24:	e54b302c 	strb	r3, [fp, #-44]	; 0xffffffd4
c0100b28:	e3a03000 	mov	r3, #0
c0100b2c:	e54b302b 	strb	r3, [fp, #-43]	; 0xffffffd5
c0100b30:	e24b102c 	sub	r1, fp, #44	; 0x2c
c0100b34:	e51b3024 	ldr	r3, [fp, #-36]	; 0xffffffdc
c0100b38:	e51b2020 	ldr	r2, [fp, #-32]	; 0xffffffe0
c0100b3c:	e51b0038 	ldr	r0, [fp, #-56]	; 0xffffffc8
c0100b40:	ebfffe25 	bl	c01003dc <prints>
c0100b44:	e1a02000 	mov	r2, r0
c0100b48:	e51b3028 	ldr	r3, [fp, #-40]	; 0xffffffd8
c0100b4c:	e0833002 	add	r3, r3, r2
c0100b50:	e50b3028 	str	r3, [fp, #-40]	; 0xffffffd8
c0100b54:	ea00025f 	b	c01014d8 <simple_vsprintf+0xd78>
c0100b58:	e51b3040 	ldr	r3, [fp, #-64]	; 0xffffffc0
c0100b5c:	e2833007 	add	r3, r3, #7
c0100b60:	e3c32007 	bic	r2, r3, #7
c0100b64:	e2823008 	add	r3, r2, #8
c0100b68:	e50b3040 	str	r3, [fp, #-64]	; 0xffffffc0
c0100b6c:	e1c220d0 	ldrd	r2, [r2]
c0100b70:	e14b23f4 	strd	r2, [fp, #-52]	; 0xffffffcc
c0100b74:	e14b03d4 	ldrd	r0, [fp, #-52]	; 0xffffffcc
c0100b78:	e51b3020 	ldr	r3, [fp, #-32]	; 0xffffffe0
c0100b7c:	e1a02003 	mov	r2, r3
c0100b80:	ebfffd92 	bl	c01001d0 <print_double_float>
c0100b84:	ea000253 	b	c01014d8 <simple_vsprintf+0xd78>
c0100b88:	e51b2040 	ldr	r2, [fp, #-64]	; 0xffffffc0
c0100b8c:	e2823004 	add	r3, r2, #4
c0100b90:	e50b3040 	str	r3, [fp, #-64]	; 0xffffffc0
c0100b94:	e5923000 	ldr	r3, [r2]
c0100b98:	e50b3034 	str	r3, [fp, #-52]	; 0xffffffcc
c0100b9c:	e51b3034 	ldr	r3, [fp, #-52]	; 0xffffffcc
c0100ba0:	e3530000 	cmp	r3, #0
c0100ba4:	0a000001 	beq	c0100bb0 <simple_vsprintf+0x450>
c0100ba8:	e51b1034 	ldr	r1, [fp, #-52]	; 0xffffffcc
c0100bac:	ea000001 	b	c0100bb8 <simple_vsprintf+0x458>
c0100bb0:	e3031bd8 	movw	r1, #15320	; 0x3bd8
c0100bb4:	e34c1010 	movt	r1, #49168	; 0xc010
c0100bb8:	e51b3024 	ldr	r3, [fp, #-36]	; 0xffffffdc
c0100bbc:	e51b2020 	ldr	r2, [fp, #-32]	; 0xffffffe0
c0100bc0:	e51b0038 	ldr	r0, [fp, #-56]	; 0xffffffc8
c0100bc4:	ebfffe04 	bl	c01003dc <prints>
c0100bc8:	e1a02000 	mov	r2, r0
c0100bcc:	e51b3028 	ldr	r3, [fp, #-40]	; 0xffffffd8
c0100bd0:	e0833002 	add	r3, r3, r2
c0100bd4:	e50b3028 	str	r3, [fp, #-40]	; 0xffffffd8
c0100bd8:	ea00023e 	b	c01014d8 <simple_vsprintf+0xd78>
c0100bdc:	e51b303c 	ldr	r3, [fp, #-60]	; 0xffffffc4
c0100be0:	e2833001 	add	r3, r3, #1
c0100be4:	e50b303c 	str	r3, [fp, #-60]	; 0xffffffc4
c0100be8:	e51b303c 	ldr	r3, [fp, #-60]	; 0xffffffc4
c0100bec:	e5d33000 	ldrb	r3, [r3]
c0100bf0:	e2433058 	sub	r3, r3, #88	; 0x58
c0100bf4:	e3530020 	cmp	r3, #32
c0100bf8:	979ff103 	ldrls	pc, [pc, r3, lsl #2]
c0100bfc:	ea000111 	b	c0101048 <simple_vsprintf+0x8e8>
c0100c00:	c0100dc8 	.word	0xc0100dc8
c0100c04:	c0101048 	.word	0xc0101048
c0100c08:	c0101048 	.word	0xc0101048
c0100c0c:	c0101048 	.word	0xc0101048
c0100c10:	c0101048 	.word	0xc0101048
c0100c14:	c0101048 	.word	0xc0101048
c0100c18:	c0101048 	.word	0xc0101048
c0100c1c:	c0101048 	.word	0xc0101048
c0100c20:	c0101048 	.word	0xc0101048
c0100c24:	c0101048 	.word	0xc0101048
c0100c28:	c0101048 	.word	0xc0101048
c0100c2c:	c0101048 	.word	0xc0101048
c0100c30:	c0100c84 	.word	0xc0100c84
c0100c34:	c0101048 	.word	0xc0101048
c0100c38:	c0101048 	.word	0xc0101048
c0100c3c:	c0101048 	.word	0xc0101048
c0100c40:	c0101048 	.word	0xc0101048
c0100c44:	c0101048 	.word	0xc0101048
c0100c48:	c0101048 	.word	0xc0101048
c0100c4c:	c0101048 	.word	0xc0101048
c0100c50:	c0100e34 	.word	0xc0100e34
c0100c54:	c0101048 	.word	0xc0101048
c0100c58:	c0101048 	.word	0xc0101048
c0100c5c:	c0101048 	.word	0xc0101048
c0100c60:	c0101048 	.word	0xc0101048
c0100c64:	c0101048 	.word	0xc0101048
c0100c68:	c0101048 	.word	0xc0101048
c0100c6c:	c0101048 	.word	0xc0101048
c0100c70:	c0101048 	.word	0xc0101048
c0100c74:	c0100cf0 	.word	0xc0100cf0
c0100c78:	c0101048 	.word	0xc0101048
c0100c7c:	c0101048 	.word	0xc0101048
c0100c80:	c0100d5c 	.word	0xc0100d5c
c0100c84:	e51b2040 	ldr	r2, [fp, #-64]	; 0xffffffc0
c0100c88:	e2823004 	add	r3, r2, #4
c0100c8c:	e50b3040 	str	r3, [fp, #-64]	; 0xffffffc0
c0100c90:	e5923000 	ldr	r3, [r2]
c0100c94:	e50b3034 	str	r3, [fp, #-52]	; 0xffffffcc
c0100c98:	e51b3034 	ldr	r3, [fp, #-52]	; 0xffffffcc
c0100c9c:	e1a02fc3 	asr	r2, r3, #31
c0100ca0:	e50b3054 	str	r3, [fp, #-84]	; 0xffffffac
c0100ca4:	e50b2050 	str	r2, [fp, #-80]	; 0xffffffb0
c0100ca8:	e3a03061 	mov	r3, #97	; 0x61
c0100cac:	e58d3010 	str	r3, [sp, #16]
c0100cb0:	e51b3024 	ldr	r3, [fp, #-36]	; 0xffffffdc
c0100cb4:	e58d300c 	str	r3, [sp, #12]
c0100cb8:	e51b3020 	ldr	r3, [fp, #-32]	; 0xffffffe0
c0100cbc:	e58d3008 	str	r3, [sp, #8]
c0100cc0:	e3a03001 	mov	r3, #1
c0100cc4:	e58d3004 	str	r3, [sp, #4]
c0100cc8:	e3a0300a 	mov	r3, #10
c0100ccc:	e58d3000 	str	r3, [sp]
c0100cd0:	e14b25d4 	ldrd	r2, [fp, #-84]	; 0xffffffac
c0100cd4:	e51b0038 	ldr	r0, [fp, #-56]	; 0xffffffc8
c0100cd8:	ebfffe23 	bl	c010056c <simple_outputi>
c0100cdc:	e1a02000 	mov	r2, r0
c0100ce0:	e51b3028 	ldr	r3, [fp, #-40]	; 0xffffffd8
c0100ce4:	e0833002 	add	r3, r3, r2
c0100ce8:	e50b3028 	str	r3, [fp, #-40]	; 0xffffffd8
c0100cec:	ea0000d6 	b	c010104c <simple_vsprintf+0x8ec>
c0100cf0:	e51b2040 	ldr	r2, [fp, #-64]	; 0xffffffc0
c0100cf4:	e2823004 	add	r3, r2, #4
c0100cf8:	e50b3040 	str	r3, [fp, #-64]	; 0xffffffc0
c0100cfc:	e5923000 	ldr	r3, [r2]
c0100d00:	e50b3034 	str	r3, [fp, #-52]	; 0xffffffcc
c0100d04:	e51b3034 	ldr	r3, [fp, #-52]	; 0xffffffcc
c0100d08:	e3a02000 	mov	r2, #0
c0100d0c:	e50b305c 	str	r3, [fp, #-92]	; 0xffffffa4
c0100d10:	e50b2058 	str	r2, [fp, #-88]	; 0xffffffa8
c0100d14:	e3a03061 	mov	r3, #97	; 0x61
c0100d18:	e58d3010 	str	r3, [sp, #16]
c0100d1c:	e51b3024 	ldr	r3, [fp, #-36]	; 0xffffffdc
c0100d20:	e58d300c 	str	r3, [sp, #12]
c0100d24:	e51b3020 	ldr	r3, [fp, #-32]	; 0xffffffe0
c0100d28:	e58d3008 	str	r3, [sp, #8]
c0100d2c:	e3a03000 	mov	r3, #0
c0100d30:	e58d3004 	str	r3, [sp, #4]
c0100d34:	e3a0300a 	mov	r3, #10
c0100d38:	e58d3000 	str	r3, [sp]
c0100d3c:	e14b25dc 	ldrd	r2, [fp, #-92]	; 0xffffffa4
c0100d40:	e51b0038 	ldr	r0, [fp, #-56]	; 0xffffffc8
c0100d44:	ebfffe08 	bl	c010056c <simple_outputi>
c0100d48:	e1a02000 	mov	r2, r0
c0100d4c:	e51b3028 	ldr	r3, [fp, #-40]	; 0xffffffd8
c0100d50:	e0833002 	add	r3, r3, r2
c0100d54:	e50b3028 	str	r3, [fp, #-40]	; 0xffffffd8
c0100d58:	ea0000bb 	b	c010104c <simple_vsprintf+0x8ec>
c0100d5c:	e51b2040 	ldr	r2, [fp, #-64]	; 0xffffffc0
c0100d60:	e2823004 	add	r3, r2, #4
c0100d64:	e50b3040 	str	r3, [fp, #-64]	; 0xffffffc0
c0100d68:	e5923000 	ldr	r3, [r2]
c0100d6c:	e50b3034 	str	r3, [fp, #-52]	; 0xffffffcc
c0100d70:	e51b3034 	ldr	r3, [fp, #-52]	; 0xffffffcc
c0100d74:	e3a02000 	mov	r2, #0
c0100d78:	e50b3064 	str	r3, [fp, #-100]	; 0xffffff9c
c0100d7c:	e50b2060 	str	r2, [fp, #-96]	; 0xffffffa0
c0100d80:	e3a03061 	mov	r3, #97	; 0x61
c0100d84:	e58d3010 	str	r3, [sp, #16]
c0100d88:	e51b3024 	ldr	r3, [fp, #-36]	; 0xffffffdc
c0100d8c:	e58d300c 	str	r3, [sp, #12]
c0100d90:	e51b3020 	ldr	r3, [fp, #-32]	; 0xffffffe0
c0100d94:	e58d3008 	str	r3, [sp, #8]
c0100d98:	e3a03000 	mov	r3, #0
c0100d9c:	e58d3004 	str	r3, [sp, #4]
c0100da0:	e3a03010 	mov	r3, #16
c0100da4:	e58d3000 	str	r3, [sp]
c0100da8:	e14b26d4 	ldrd	r2, [fp, #-100]	; 0xffffff9c
c0100dac:	e51b0038 	ldr	r0, [fp, #-56]	; 0xffffffc8
c0100db0:	ebfffded 	bl	c010056c <simple_outputi>
c0100db4:	e1a02000 	mov	r2, r0
c0100db8:	e51b3028 	ldr	r3, [fp, #-40]	; 0xffffffd8
c0100dbc:	e0833002 	add	r3, r3, r2
c0100dc0:	e50b3028 	str	r3, [fp, #-40]	; 0xffffffd8
c0100dc4:	ea0000a0 	b	c010104c <simple_vsprintf+0x8ec>
c0100dc8:	e51b2040 	ldr	r2, [fp, #-64]	; 0xffffffc0
c0100dcc:	e2823004 	add	r3, r2, #4
c0100dd0:	e50b3040 	str	r3, [fp, #-64]	; 0xffffffc0
c0100dd4:	e5923000 	ldr	r3, [r2]
c0100dd8:	e50b3034 	str	r3, [fp, #-52]	; 0xffffffcc
c0100ddc:	e51b3034 	ldr	r3, [fp, #-52]	; 0xffffffcc
c0100de0:	e3a02000 	mov	r2, #0
c0100de4:	e50b306c 	str	r3, [fp, #-108]	; 0xffffff94
c0100de8:	e50b2068 	str	r2, [fp, #-104]	; 0xffffff98
c0100dec:	e3a03041 	mov	r3, #65	; 0x41
c0100df0:	e58d3010 	str	r3, [sp, #16]
c0100df4:	e51b3024 	ldr	r3, [fp, #-36]	; 0xffffffdc
c0100df8:	e58d300c 	str	r3, [sp, #12]
c0100dfc:	e51b3020 	ldr	r3, [fp, #-32]	; 0xffffffe0
c0100e00:	e58d3008 	str	r3, [sp, #8]
c0100e04:	e3a03000 	mov	r3, #0
c0100e08:	e58d3004 	str	r3, [sp, #4]
c0100e0c:	e3a03010 	mov	r3, #16
c0100e10:	e58d3000 	str	r3, [sp]
c0100e14:	e14b26dc 	ldrd	r2, [fp, #-108]	; 0xffffff94
c0100e18:	e51b0038 	ldr	r0, [fp, #-56]	; 0xffffffc8
c0100e1c:	ebfffdd2 	bl	c010056c <simple_outputi>
c0100e20:	e1a02000 	mov	r2, r0
c0100e24:	e51b3028 	ldr	r3, [fp, #-40]	; 0xffffffd8
c0100e28:	e0833002 	add	r3, r3, r2
c0100e2c:	e50b3028 	str	r3, [fp, #-40]	; 0xffffffd8
c0100e30:	ea000085 	b	c010104c <simple_vsprintf+0x8ec>
c0100e34:	e51b303c 	ldr	r3, [fp, #-60]	; 0xffffffc4
c0100e38:	e2833001 	add	r3, r3, #1
c0100e3c:	e50b303c 	str	r3, [fp, #-60]	; 0xffffffc4
c0100e40:	e51b303c 	ldr	r3, [fp, #-60]	; 0xffffffc4
c0100e44:	e5d33000 	ldrb	r3, [r3]
c0100e48:	e3530078 	cmp	r3, #120	; 0x78
c0100e4c:	0a000041 	beq	c0100f58 <simple_vsprintf+0x7f8>
c0100e50:	e3530078 	cmp	r3, #120	; 0x78
c0100e54:	ca000079 	bgt	c0101040 <simple_vsprintf+0x8e0>
c0100e58:	e3530075 	cmp	r3, #117	; 0x75
c0100e5c:	0a000020 	beq	c0100ee4 <simple_vsprintf+0x784>
c0100e60:	e3530075 	cmp	r3, #117	; 0x75
c0100e64:	ca000075 	bgt	c0101040 <simple_vsprintf+0x8e0>
c0100e68:	e3530058 	cmp	r3, #88	; 0x58
c0100e6c:	0a000056 	beq	c0100fcc <simple_vsprintf+0x86c>
c0100e70:	e3530064 	cmp	r3, #100	; 0x64
c0100e74:	1a000071 	bne	c0101040 <simple_vsprintf+0x8e0>
c0100e78:	e51b3040 	ldr	r3, [fp, #-64]	; 0xffffffc0
c0100e7c:	e2833007 	add	r3, r3, #7
c0100e80:	e3c32007 	bic	r2, r3, #7
c0100e84:	e2823008 	add	r3, r2, #8
c0100e88:	e50b3040 	str	r3, [fp, #-64]	; 0xffffffc0
c0100e8c:	e1c220d0 	ldrd	r2, [r2]
c0100e90:	e14b23f4 	strd	r2, [fp, #-52]	; 0xffffffcc
c0100e94:	e14b03d4 	ldrd	r0, [fp, #-52]	; 0xffffffcc
c0100e98:	e3a03061 	mov	r3, #97	; 0x61
c0100e9c:	e58d3010 	str	r3, [sp, #16]
c0100ea0:	e51b3024 	ldr	r3, [fp, #-36]	; 0xffffffdc
c0100ea4:	e58d300c 	str	r3, [sp, #12]
c0100ea8:	e51b3020 	ldr	r3, [fp, #-32]	; 0xffffffe0
c0100eac:	e58d3008 	str	r3, [sp, #8]
c0100eb0:	e3a03001 	mov	r3, #1
c0100eb4:	e58d3004 	str	r3, [sp, #4]
c0100eb8:	e3a0300a 	mov	r3, #10
c0100ebc:	e58d3000 	str	r3, [sp]
c0100ec0:	e1a02000 	mov	r2, r0
c0100ec4:	e1a03001 	mov	r3, r1
c0100ec8:	e51b0038 	ldr	r0, [fp, #-56]	; 0xffffffc8
c0100ecc:	ebfffda6 	bl	c010056c <simple_outputi>
c0100ed0:	e1a02000 	mov	r2, r0
c0100ed4:	e51b3028 	ldr	r3, [fp, #-40]	; 0xffffffd8
c0100ed8:	e0833002 	add	r3, r3, r2
c0100edc:	e50b3028 	str	r3, [fp, #-40]	; 0xffffffd8
c0100ee0:	ea000057 	b	c0101044 <simple_vsprintf+0x8e4>
c0100ee4:	e51b3040 	ldr	r3, [fp, #-64]	; 0xffffffc0
c0100ee8:	e2833007 	add	r3, r3, #7
c0100eec:	e3c32007 	bic	r2, r3, #7
c0100ef0:	e2823008 	add	r3, r2, #8
c0100ef4:	e50b3040 	str	r3, [fp, #-64]	; 0xffffffc0
c0100ef8:	e1c220d0 	ldrd	r2, [r2]
c0100efc:	e14b23f4 	strd	r2, [fp, #-52]	; 0xffffffcc
c0100f00:	e14b23d4 	ldrd	r2, [fp, #-52]	; 0xffffffcc
c0100f04:	e1a00002 	mov	r0, r2
c0100f08:	e1a01003 	mov	r1, r3
c0100f0c:	e3a03061 	mov	r3, #97	; 0x61
c0100f10:	e58d3010 	str	r3, [sp, #16]
c0100f14:	e51b3024 	ldr	r3, [fp, #-36]	; 0xffffffdc
c0100f18:	e58d300c 	str	r3, [sp, #12]
c0100f1c:	e51b3020 	ldr	r3, [fp, #-32]	; 0xffffffe0
c0100f20:	e58d3008 	str	r3, [sp, #8]
c0100f24:	e3a03000 	mov	r3, #0
c0100f28:	e58d3004 	str	r3, [sp, #4]
c0100f2c:	e3a0300a 	mov	r3, #10
c0100f30:	e58d3000 	str	r3, [sp]
c0100f34:	e1a02000 	mov	r2, r0
c0100f38:	e1a03001 	mov	r3, r1
c0100f3c:	e51b0038 	ldr	r0, [fp, #-56]	; 0xffffffc8
c0100f40:	ebfffd89 	bl	c010056c <simple_outputi>
c0100f44:	e1a02000 	mov	r2, r0
c0100f48:	e51b3028 	ldr	r3, [fp, #-40]	; 0xffffffd8
c0100f4c:	e0833002 	add	r3, r3, r2
c0100f50:	e50b3028 	str	r3, [fp, #-40]	; 0xffffffd8
c0100f54:	ea00003a 	b	c0101044 <simple_vsprintf+0x8e4>
c0100f58:	e51b3040 	ldr	r3, [fp, #-64]	; 0xffffffc0
c0100f5c:	e2833007 	add	r3, r3, #7
c0100f60:	e3c32007 	bic	r2, r3, #7
c0100f64:	e2823008 	add	r3, r2, #8
c0100f68:	e50b3040 	str	r3, [fp, #-64]	; 0xffffffc0
c0100f6c:	e1c220d0 	ldrd	r2, [r2]
c0100f70:	e14b23f4 	strd	r2, [fp, #-52]	; 0xffffffcc
c0100f74:	e14b23d4 	ldrd	r2, [fp, #-52]	; 0xffffffcc
c0100f78:	e1a00002 	mov	r0, r2
c0100f7c:	e1a01003 	mov	r1, r3
c0100f80:	e3a03061 	mov	r3, #97	; 0x61
c0100f84:	e58d3010 	str	r3, [sp, #16]
c0100f88:	e51b3024 	ldr	r3, [fp, #-36]	; 0xffffffdc
c0100f8c:	e58d300c 	str	r3, [sp, #12]
c0100f90:	e51b3020 	ldr	r3, [fp, #-32]	; 0xffffffe0
c0100f94:	e58d3008 	str	r3, [sp, #8]
c0100f98:	e3a03000 	mov	r3, #0
c0100f9c:	e58d3004 	str	r3, [sp, #4]
c0100fa0:	e3a03010 	mov	r3, #16
c0100fa4:	e58d3000 	str	r3, [sp]
c0100fa8:	e1a02000 	mov	r2, r0
c0100fac:	e1a03001 	mov	r3, r1
c0100fb0:	e51b0038 	ldr	r0, [fp, #-56]	; 0xffffffc8
c0100fb4:	ebfffd6c 	bl	c010056c <simple_outputi>
c0100fb8:	e1a02000 	mov	r2, r0
c0100fbc:	e51b3028 	ldr	r3, [fp, #-40]	; 0xffffffd8
c0100fc0:	e0833002 	add	r3, r3, r2
c0100fc4:	e50b3028 	str	r3, [fp, #-40]	; 0xffffffd8
c0100fc8:	ea00001d 	b	c0101044 <simple_vsprintf+0x8e4>
c0100fcc:	e51b3040 	ldr	r3, [fp, #-64]	; 0xffffffc0
c0100fd0:	e2833007 	add	r3, r3, #7
c0100fd4:	e3c32007 	bic	r2, r3, #7
c0100fd8:	e2823008 	add	r3, r2, #8
c0100fdc:	e50b3040 	str	r3, [fp, #-64]	; 0xffffffc0
c0100fe0:	e1c220d0 	ldrd	r2, [r2]
c0100fe4:	e14b23f4 	strd	r2, [fp, #-52]	; 0xffffffcc
c0100fe8:	e14b23d4 	ldrd	r2, [fp, #-52]	; 0xffffffcc
c0100fec:	e1a00002 	mov	r0, r2
c0100ff0:	e1a01003 	mov	r1, r3
c0100ff4:	e3a03041 	mov	r3, #65	; 0x41
c0100ff8:	e58d3010 	str	r3, [sp, #16]
c0100ffc:	e51b3024 	ldr	r3, [fp, #-36]	; 0xffffffdc
c0101000:	e58d300c 	str	r3, [sp, #12]
c0101004:	e51b3020 	ldr	r3, [fp, #-32]	; 0xffffffe0
c0101008:	e58d3008 	str	r3, [sp, #8]
c010100c:	e3a03000 	mov	r3, #0
c0101010:	e58d3004 	str	r3, [sp, #4]
c0101014:	e3a03010 	mov	r3, #16
c0101018:	e58d3000 	str	r3, [sp]
c010101c:	e1a02000 	mov	r2, r0
c0101020:	e1a03001 	mov	r3, r1
c0101024:	e51b0038 	ldr	r0, [fp, #-56]	; 0xffffffc8
c0101028:	ebfffd4f 	bl	c010056c <simple_outputi>
c010102c:	e1a02000 	mov	r2, r0
c0101030:	e51b3028 	ldr	r3, [fp, #-40]	; 0xffffffd8
c0101034:	e0833002 	add	r3, r3, r2
c0101038:	e50b3028 	str	r3, [fp, #-40]	; 0xffffffd8
c010103c:	ea000000 	b	c0101044 <simple_vsprintf+0x8e4>
c0101040:	e320f000 	nop	{0}
c0101044:	ea000000 	b	c010104c <simple_vsprintf+0x8ec>
c0101048:	e320f000 	nop	{0}
c010104c:	ea000121 	b	c01014d8 <simple_vsprintf+0xd78>
c0101050:	e51b303c 	ldr	r3, [fp, #-60]	; 0xffffffc4
c0101054:	e2833001 	add	r3, r3, #1
c0101058:	e50b303c 	str	r3, [fp, #-60]	; 0xffffffc4
c010105c:	e51b303c 	ldr	r3, [fp, #-60]	; 0xffffffc4
c0101060:	e5d33000 	ldrb	r3, [r3]
c0101064:	e2433058 	sub	r3, r3, #88	; 0x58
c0101068:	e3530020 	cmp	r3, #32
c010106c:	979ff103 	ldrls	pc, [pc, r3, lsl #2]
c0101070:	ea000109 	b	c010149c <simple_vsprintf+0xd3c>
c0101074:	c010123c 	.word	0xc010123c
c0101078:	c010149c 	.word	0xc010149c
c010107c:	c010149c 	.word	0xc010149c
c0101080:	c010149c 	.word	0xc010149c
c0101084:	c010149c 	.word	0xc010149c
c0101088:	c010149c 	.word	0xc010149c
c010108c:	c010149c 	.word	0xc010149c
c0101090:	c010149c 	.word	0xc010149c
c0101094:	c010149c 	.word	0xc010149c
c0101098:	c010149c 	.word	0xc010149c
c010109c:	c010149c 	.word	0xc010149c
c01010a0:	c010149c 	.word	0xc010149c
c01010a4:	c01010f8 	.word	0xc01010f8
c01010a8:	c010149c 	.word	0xc010149c
c01010ac:	c010149c 	.word	0xc010149c
c01010b0:	c010149c 	.word	0xc010149c
c01010b4:	c01012a4 	.word	0xc01012a4
c01010b8:	c010149c 	.word	0xc010149c
c01010bc:	c010149c 	.word	0xc010149c
c01010c0:	c010149c 	.word	0xc010149c
c01010c4:	c010149c 	.word	0xc010149c
c01010c8:	c010149c 	.word	0xc010149c
c01010cc:	c010149c 	.word	0xc010149c
c01010d0:	c010149c 	.word	0xc010149c
c01010d4:	c010149c 	.word	0xc010149c
c01010d8:	c010149c 	.word	0xc010149c
c01010dc:	c010149c 	.word	0xc010149c
c01010e0:	c010149c 	.word	0xc010149c
c01010e4:	c010149c 	.word	0xc010149c
c01010e8:	c010116c 	.word	0xc010116c
c01010ec:	c010149c 	.word	0xc010149c
c01010f0:	c010149c 	.word	0xc010149c
c01010f4:	c01011d4 	.word	0xc01011d4
c01010f8:	e51b2040 	ldr	r2, [fp, #-64]	; 0xffffffc0
c01010fc:	e2823004 	add	r3, r2, #4
c0101100:	e50b3040 	str	r3, [fp, #-64]	; 0xffffffc0
c0101104:	e5923000 	ldr	r3, [r2]
c0101108:	e6bf3073 	sxth	r3, r3
c010110c:	e14b33b4 	strh	r3, [fp, #-52]	; 0xffffffcc
c0101110:	e15b33f4 	ldrsh	r3, [fp, #-52]	; 0xffffffcc
c0101114:	e6bf3073 	sxth	r3, r3
c0101118:	e1a02fc3 	asr	r2, r3, #31
c010111c:	e50b3074 	str	r3, [fp, #-116]	; 0xffffff8c
c0101120:	e50b2070 	str	r2, [fp, #-112]	; 0xffffff90
c0101124:	e3a03061 	mov	r3, #97	; 0x61
c0101128:	e58d3010 	str	r3, [sp, #16]
c010112c:	e51b3024 	ldr	r3, [fp, #-36]	; 0xffffffdc
c0101130:	e58d300c 	str	r3, [sp, #12]
c0101134:	e51b3020 	ldr	r3, [fp, #-32]	; 0xffffffe0
c0101138:	e58d3008 	str	r3, [sp, #8]
c010113c:	e3a03001 	mov	r3, #1
c0101140:	e58d3004 	str	r3, [sp, #4]
c0101144:	e3a0300a 	mov	r3, #10
c0101148:	e58d3000 	str	r3, [sp]
c010114c:	e14b27d4 	ldrd	r2, [fp, #-116]	; 0xffffff8c
c0101150:	e51b0038 	ldr	r0, [fp, #-56]	; 0xffffffc8
c0101154:	ebfffd04 	bl	c010056c <simple_outputi>
c0101158:	e1a02000 	mov	r2, r0
c010115c:	e51b3028 	ldr	r3, [fp, #-40]	; 0xffffffd8
c0101160:	e0833002 	add	r3, r3, r2
c0101164:	e50b3028 	str	r3, [fp, #-40]	; 0xffffffd8
c0101168:	ea0000cc 	b	c01014a0 <simple_vsprintf+0xd40>
c010116c:	e51b2040 	ldr	r2, [fp, #-64]	; 0xffffffc0
c0101170:	e2823004 	add	r3, r2, #4
c0101174:	e50b3040 	str	r3, [fp, #-64]	; 0xffffffc0
c0101178:	e5923000 	ldr	r3, [r2]
c010117c:	e6ff3073 	uxth	r3, r3
c0101180:	e14b33b4 	strh	r3, [fp, #-52]	; 0xffffffcc
c0101184:	e14b03d4 	ldrd	r0, [fp, #-52]	; 0xffffffcc
c0101188:	e3a03061 	mov	r3, #97	; 0x61
c010118c:	e58d3010 	str	r3, [sp, #16]
c0101190:	e51b3024 	ldr	r3, [fp, #-36]	; 0xffffffdc
c0101194:	e58d300c 	str	r3, [sp, #12]
c0101198:	e51b3020 	ldr	r3, [fp, #-32]	; 0xffffffe0
c010119c:	e58d3008 	str	r3, [sp, #8]
c01011a0:	e3a03000 	mov	r3, #0
c01011a4:	e58d3004 	str	r3, [sp, #4]
c01011a8:	e3a0300a 	mov	r3, #10
c01011ac:	e58d3000 	str	r3, [sp]
c01011b0:	e1a02000 	mov	r2, r0
c01011b4:	e1a03001 	mov	r3, r1
c01011b8:	e51b0038 	ldr	r0, [fp, #-56]	; 0xffffffc8
c01011bc:	ebfffcea 	bl	c010056c <simple_outputi>
c01011c0:	e1a02000 	mov	r2, r0
c01011c4:	e51b3028 	ldr	r3, [fp, #-40]	; 0xffffffd8
c01011c8:	e0833002 	add	r3, r3, r2
c01011cc:	e50b3028 	str	r3, [fp, #-40]	; 0xffffffd8
c01011d0:	ea0000b2 	b	c01014a0 <simple_vsprintf+0xd40>
c01011d4:	e51b2040 	ldr	r2, [fp, #-64]	; 0xffffffc0
c01011d8:	e2823004 	add	r3, r2, #4
c01011dc:	e50b3040 	str	r3, [fp, #-64]	; 0xffffffc0
c01011e0:	e5923000 	ldr	r3, [r2]
c01011e4:	e6ff3073 	uxth	r3, r3
c01011e8:	e14b33b4 	strh	r3, [fp, #-52]	; 0xffffffcc
c01011ec:	e14b03d4 	ldrd	r0, [fp, #-52]	; 0xffffffcc
c01011f0:	e3a03061 	mov	r3, #97	; 0x61
c01011f4:	e58d3010 	str	r3, [sp, #16]
c01011f8:	e51b3024 	ldr	r3, [fp, #-36]	; 0xffffffdc
c01011fc:	e58d300c 	str	r3, [sp, #12]
c0101200:	e51b3020 	ldr	r3, [fp, #-32]	; 0xffffffe0
c0101204:	e58d3008 	str	r3, [sp, #8]
c0101208:	e3a03000 	mov	r3, #0
c010120c:	e58d3004 	str	r3, [sp, #4]
c0101210:	e3a03010 	mov	r3, #16
c0101214:	e58d3000 	str	r3, [sp]
c0101218:	e1a02000 	mov	r2, r0
c010121c:	e1a03001 	mov	r3, r1
c0101220:	e51b0038 	ldr	r0, [fp, #-56]	; 0xffffffc8
c0101224:	ebfffcd0 	bl	c010056c <simple_outputi>
c0101228:	e1a02000 	mov	r2, r0
c010122c:	e51b3028 	ldr	r3, [fp, #-40]	; 0xffffffd8
c0101230:	e0833002 	add	r3, r3, r2
c0101234:	e50b3028 	str	r3, [fp, #-40]	; 0xffffffd8
c0101238:	ea000098 	b	c01014a0 <simple_vsprintf+0xd40>
c010123c:	e51b2040 	ldr	r2, [fp, #-64]	; 0xffffffc0
c0101240:	e2823004 	add	r3, r2, #4
c0101244:	e50b3040 	str	r3, [fp, #-64]	; 0xffffffc0
c0101248:	e5923000 	ldr	r3, [r2]
c010124c:	e6ff3073 	uxth	r3, r3
c0101250:	e14b33b4 	strh	r3, [fp, #-52]	; 0xffffffcc
c0101254:	e14b03d4 	ldrd	r0, [fp, #-52]	; 0xffffffcc
c0101258:	e3a03041 	mov	r3, #65	; 0x41
c010125c:	e58d3010 	str	r3, [sp, #16]
c0101260:	e51b3024 	ldr	r3, [fp, #-36]	; 0xffffffdc
c0101264:	e58d300c 	str	r3, [sp, #12]
c0101268:	e51b3020 	ldr	r3, [fp, #-32]	; 0xffffffe0
c010126c:	e58d3008 	str	r3, [sp, #8]
c0101270:	e3a03000 	mov	r3, #0
c0101274:	e58d3004 	str	r3, [sp, #4]
c0101278:	e3a03010 	mov	r3, #16
c010127c:	e58d3000 	str	r3, [sp]
c0101280:	e1a02000 	mov	r2, r0
c0101284:	e1a03001 	mov	r3, r1
c0101288:	e51b0038 	ldr	r0, [fp, #-56]	; 0xffffffc8
c010128c:	ebfffcb6 	bl	c010056c <simple_outputi>
c0101290:	e1a02000 	mov	r2, r0
c0101294:	e51b3028 	ldr	r3, [fp, #-40]	; 0xffffffd8
c0101298:	e0833002 	add	r3, r3, r2
c010129c:	e50b3028 	str	r3, [fp, #-40]	; 0xffffffd8
c01012a0:	ea00007e 	b	c01014a0 <simple_vsprintf+0xd40>
c01012a4:	e51b303c 	ldr	r3, [fp, #-60]	; 0xffffffc4
c01012a8:	e2833001 	add	r3, r3, #1
c01012ac:	e50b303c 	str	r3, [fp, #-60]	; 0xffffffc4
c01012b0:	e51b303c 	ldr	r3, [fp, #-60]	; 0xffffffc4
c01012b4:	e5d33000 	ldrb	r3, [r3]
c01012b8:	e3530078 	cmp	r3, #120	; 0x78
c01012bc:	0a000040 	beq	c01013c4 <simple_vsprintf+0xc64>
c01012c0:	e3530078 	cmp	r3, #120	; 0x78
c01012c4:	ca000072 	bgt	c0101494 <simple_vsprintf+0xd34>
c01012c8:	e3530075 	cmp	r3, #117	; 0x75
c01012cc:	0a000022 	beq	c010135c <simple_vsprintf+0xbfc>
c01012d0:	e3530075 	cmp	r3, #117	; 0x75
c01012d4:	ca00006e 	bgt	c0101494 <simple_vsprintf+0xd34>
c01012d8:	e3530058 	cmp	r3, #88	; 0x58
c01012dc:	0a000052 	beq	c010142c <simple_vsprintf+0xccc>
c01012e0:	e3530064 	cmp	r3, #100	; 0x64
c01012e4:	1a00006a 	bne	c0101494 <simple_vsprintf+0xd34>
c01012e8:	e51b2040 	ldr	r2, [fp, #-64]	; 0xffffffc0
c01012ec:	e2823004 	add	r3, r2, #4
c01012f0:	e50b3040 	str	r3, [fp, #-64]	; 0xffffffc0
c01012f4:	e5923000 	ldr	r3, [r2]
c01012f8:	e6af3073 	sxtb	r3, r3
c01012fc:	e54b3034 	strb	r3, [fp, #-52]	; 0xffffffcc
c0101300:	e15b33d4 	ldrsb	r3, [fp, #-52]	; 0xffffffcc
c0101304:	e6af3073 	sxtb	r3, r3
c0101308:	e1a02fc3 	asr	r2, r3, #31
c010130c:	e50b307c 	str	r3, [fp, #-124]	; 0xffffff84
c0101310:	e50b2078 	str	r2, [fp, #-120]	; 0xffffff88
c0101314:	e3a03061 	mov	r3, #97	; 0x61
c0101318:	e58d3010 	str	r3, [sp, #16]
c010131c:	e51b3024 	ldr	r3, [fp, #-36]	; 0xffffffdc
c0101320:	e58d300c 	str	r3, [sp, #12]
c0101324:	e51b3020 	ldr	r3, [fp, #-32]	; 0xffffffe0
c0101328:	e58d3008 	str	r3, [sp, #8]
c010132c:	e3a03001 	mov	r3, #1
c0101330:	e58d3004 	str	r3, [sp, #4]
c0101334:	e3a0300a 	mov	r3, #10
c0101338:	e58d3000 	str	r3, [sp]
c010133c:	e14b27dc 	ldrd	r2, [fp, #-124]	; 0xffffff84
c0101340:	e51b0038 	ldr	r0, [fp, #-56]	; 0xffffffc8
c0101344:	ebfffc88 	bl	c010056c <simple_outputi>
c0101348:	e1a02000 	mov	r2, r0
c010134c:	e51b3028 	ldr	r3, [fp, #-40]	; 0xffffffd8
c0101350:	e0833002 	add	r3, r3, r2
c0101354:	e50b3028 	str	r3, [fp, #-40]	; 0xffffffd8
c0101358:	ea00004e 	b	c0101498 <simple_vsprintf+0xd38>
c010135c:	e51b2040 	ldr	r2, [fp, #-64]	; 0xffffffc0
c0101360:	e2823004 	add	r3, r2, #4
c0101364:	e50b3040 	str	r3, [fp, #-64]	; 0xffffffc0
c0101368:	e5923000 	ldr	r3, [r2]
c010136c:	e6ef3073 	uxtb	r3, r3
c0101370:	e54b3034 	strb	r3, [fp, #-52]	; 0xffffffcc
c0101374:	e14b03d4 	ldrd	r0, [fp, #-52]	; 0xffffffcc
c0101378:	e3a03061 	mov	r3, #97	; 0x61
c010137c:	e58d3010 	str	r3, [sp, #16]
c0101380:	e51b3024 	ldr	r3, [fp, #-36]	; 0xffffffdc
c0101384:	e58d300c 	str	r3, [sp, #12]
c0101388:	e51b3020 	ldr	r3, [fp, #-32]	; 0xffffffe0
c010138c:	e58d3008 	str	r3, [sp, #8]
c0101390:	e3a03000 	mov	r3, #0
c0101394:	e58d3004 	str	r3, [sp, #4]
c0101398:	e3a0300a 	mov	r3, #10
c010139c:	e58d3000 	str	r3, [sp]
c01013a0:	e1a02000 	mov	r2, r0
c01013a4:	e1a03001 	mov	r3, r1
c01013a8:	e51b0038 	ldr	r0, [fp, #-56]	; 0xffffffc8
c01013ac:	ebfffc6e 	bl	c010056c <simple_outputi>
c01013b0:	e1a02000 	mov	r2, r0
c01013b4:	e51b3028 	ldr	r3, [fp, #-40]	; 0xffffffd8
c01013b8:	e0833002 	add	r3, r3, r2
c01013bc:	e50b3028 	str	r3, [fp, #-40]	; 0xffffffd8
c01013c0:	ea000034 	b	c0101498 <simple_vsprintf+0xd38>
c01013c4:	e51b2040 	ldr	r2, [fp, #-64]	; 0xffffffc0
c01013c8:	e2823004 	add	r3, r2, #4
c01013cc:	e50b3040 	str	r3, [fp, #-64]	; 0xffffffc0
c01013d0:	e5923000 	ldr	r3, [r2]
c01013d4:	e6ef3073 	uxtb	r3, r3
c01013d8:	e54b3034 	strb	r3, [fp, #-52]	; 0xffffffcc
c01013dc:	e14b03d4 	ldrd	r0, [fp, #-52]	; 0xffffffcc
c01013e0:	e3a03061 	mov	r3, #97	; 0x61
c01013e4:	e58d3010 	str	r3, [sp, #16]
c01013e8:	e51b3024 	ldr	r3, [fp, #-36]	; 0xffffffdc
c01013ec:	e58d300c 	str	r3, [sp, #12]
c01013f0:	e51b3020 	ldr	r3, [fp, #-32]	; 0xffffffe0
c01013f4:	e58d3008 	str	r3, [sp, #8]
c01013f8:	e3a03000 	mov	r3, #0
c01013fc:	e58d3004 	str	r3, [sp, #4]
c0101400:	e3a03010 	mov	r3, #16
c0101404:	e58d3000 	str	r3, [sp]
c0101408:	e1a02000 	mov	r2, r0
c010140c:	e1a03001 	mov	r3, r1
c0101410:	e51b0038 	ldr	r0, [fp, #-56]	; 0xffffffc8
c0101414:	ebfffc54 	bl	c010056c <simple_outputi>
c0101418:	e1a02000 	mov	r2, r0
c010141c:	e51b3028 	ldr	r3, [fp, #-40]	; 0xffffffd8
c0101420:	e0833002 	add	r3, r3, r2
c0101424:	e50b3028 	str	r3, [fp, #-40]	; 0xffffffd8
c0101428:	ea00001a 	b	c0101498 <simple_vsprintf+0xd38>
c010142c:	e51b2040 	ldr	r2, [fp, #-64]	; 0xffffffc0
c0101430:	e2823004 	add	r3, r2, #4
c0101434:	e50b3040 	str	r3, [fp, #-64]	; 0xffffffc0
c0101438:	e5923000 	ldr	r3, [r2]
c010143c:	e6ef3073 	uxtb	r3, r3
c0101440:	e54b3034 	strb	r3, [fp, #-52]	; 0xffffffcc
c0101444:	e14b03d4 	ldrd	r0, [fp, #-52]	; 0xffffffcc
c0101448:	e3a03041 	mov	r3, #65	; 0x41
c010144c:	e58d3010 	str	r3, [sp, #16]
c0101450:	e51b3024 	ldr	r3, [fp, #-36]	; 0xffffffdc
c0101454:	e58d300c 	str	r3, [sp, #12]
c0101458:	e51b3020 	ldr	r3, [fp, #-32]	; 0xffffffe0
c010145c:	e58d3008 	str	r3, [sp, #8]
c0101460:	e3a03000 	mov	r3, #0
c0101464:	e58d3004 	str	r3, [sp, #4]
c0101468:	e3a03010 	mov	r3, #16
c010146c:	e58d3000 	str	r3, [sp]
c0101470:	e1a02000 	mov	r2, r0
c0101474:	e1a03001 	mov	r3, r1
c0101478:	e51b0038 	ldr	r0, [fp, #-56]	; 0xffffffc8
c010147c:	ebfffc3a 	bl	c010056c <simple_outputi>
c0101480:	e1a02000 	mov	r2, r0
c0101484:	e51b3028 	ldr	r3, [fp, #-40]	; 0xffffffd8
c0101488:	e0833002 	add	r3, r3, r2
c010148c:	e50b3028 	str	r3, [fp, #-40]	; 0xffffffd8
c0101490:	ea000000 	b	c0101498 <simple_vsprintf+0xd38>
c0101494:	e320f000 	nop	{0}
c0101498:	ea000000 	b	c01014a0 <simple_vsprintf+0xd40>
c010149c:	e320f000 	nop	{0}
c01014a0:	ea00000c 	b	c01014d8 <simple_vsprintf+0xd78>
c01014a4:	e320f000 	nop	{0}
c01014a8:	ea000000 	b	c01014b0 <simple_vsprintf+0xd50>
c01014ac:	e320f000 	nop	{0}
c01014b0:	e51b303c 	ldr	r3, [fp, #-60]	; 0xffffffc4
c01014b4:	e5d33000 	ldrb	r3, [r3]
c01014b8:	e1a01003 	mov	r1, r3
c01014bc:	e51b0038 	ldr	r0, [fp, #-56]	; 0xffffffc8
c01014c0:	ebfffb29 	bl	c010016c <simple_outputchar>
c01014c4:	e51b3028 	ldr	r3, [fp, #-40]	; 0xffffffd8
c01014c8:	e2833001 	add	r3, r3, #1
c01014cc:	e50b3028 	str	r3, [fp, #-40]	; 0xffffffd8
c01014d0:	ea000000 	b	c01014d8 <simple_vsprintf+0xd78>
c01014d4:	e320f000 	nop	{0}
c01014d8:	e51b303c 	ldr	r3, [fp, #-60]	; 0xffffffc4
c01014dc:	e2833001 	add	r3, r3, #1
c01014e0:	e50b303c 	str	r3, [fp, #-60]	; 0xffffffc4
c01014e4:	e51b303c 	ldr	r3, [fp, #-60]	; 0xffffffc4
c01014e8:	e5d33000 	ldrb	r3, [r3]
c01014ec:	e3530000 	cmp	r3, #0
c01014f0:	1afffca3 	bne	c0100784 <simple_vsprintf+0x24>
c01014f4:	ea000000 	b	c01014fc <simple_vsprintf+0xd9c>
c01014f8:	e320f000 	nop	{0}
c01014fc:	e51b3038 	ldr	r3, [fp, #-56]	; 0xffffffc8
c0101500:	e3530000 	cmp	r3, #0
c0101504:	0a000003 	beq	c0101518 <simple_vsprintf+0xdb8>
c0101508:	e51b3038 	ldr	r3, [fp, #-56]	; 0xffffffc8
c010150c:	e5933000 	ldr	r3, [r3]
c0101510:	e3a02000 	mov	r2, #0
c0101514:	e5c32000 	strb	r2, [r3]
c0101518:	e51b3028 	ldr	r3, [fp, #-40]	; 0xffffffd8
c010151c:	e1a00003 	mov	r0, r3
c0101520:	e24bd01c 	sub	sp, fp, #28
c0101524:	e8bd8bf0 	pop	{r4, r5, r6, r7, r8, r9, fp, pc}

c0101528 <kmalloc_init>:
c0101528:	e92d4800 	push	{fp, lr}
c010152c:	e28db004 	add	fp, sp, #4
c0101530:	e24dd010 	sub	sp, sp, #16
c0101534:	e50b0010 	str	r0, [fp, #-16]
c0101538:	e50b1014 	str	r1, [fp, #-20]	; 0xffffffec
c010153c:	e30c3414 	movw	r3, #50196	; 0xc414
c0101540:	e34c3010 	movt	r3, #49168	; 0xc010
c0101544:	e51b2010 	ldr	r2, [fp, #-16]
c0101548:	e5832000 	str	r2, [r3]
c010154c:	e30c3414 	movw	r3, #50196	; 0xc414
c0101550:	e34c3010 	movt	r3, #49168	; 0xc010
c0101554:	e5933000 	ldr	r3, [r3]
c0101558:	e3a02000 	mov	r2, #0
c010155c:	e5832000 	str	r2, [r3]
c0101560:	e30c3414 	movw	r3, #50196	; 0xc414
c0101564:	e34c3010 	movt	r3, #49168	; 0xc010
c0101568:	e5933000 	ldr	r3, [r3]
c010156c:	e51b2014 	ldr	r2, [fp, #-20]	; 0xffffffec
c0101570:	e2422014 	sub	r2, r2, #20
c0101574:	e5832004 	str	r2, [r3, #4]
c0101578:	e30c3414 	movw	r3, #50196	; 0xc414
c010157c:	e34c3010 	movt	r3, #49168	; 0xc010
c0101580:	e5932000 	ldr	r2, [r3]
c0101584:	e30c3414 	movw	r3, #50196	; 0xc414
c0101588:	e34c3010 	movt	r3, #49168	; 0xc010
c010158c:	e5933000 	ldr	r3, [r3]
c0101590:	e5922004 	ldr	r2, [r2, #4]
c0101594:	e5832008 	str	r2, [r3, #8]
c0101598:	e30c3418 	movw	r3, #50200	; 0xc418
c010159c:	e34c3010 	movt	r3, #49168	; 0xc010
c01015a0:	e51b2014 	ldr	r2, [fp, #-20]	; 0xffffffec
c01015a4:	e5832000 	str	r2, [r3]
c01015a8:	e30c3414 	movw	r3, #50196	; 0xc414
c01015ac:	e34c3010 	movt	r3, #49168	; 0xc010
c01015b0:	e5933000 	ldr	r3, [r3]
c01015b4:	e283300c 	add	r3, r3, #12
c01015b8:	e50b3008 	str	r3, [fp, #-8]
c01015bc:	e30c3414 	movw	r3, #50196	; 0xc414
c01015c0:	e34c3010 	movt	r3, #49168	; 0xc010
c01015c4:	e5933000 	ldr	r3, [r3]
c01015c8:	e5932004 	ldr	r2, [r3, #4]
c01015cc:	e51b3008 	ldr	r3, [fp, #-8]
c01015d0:	e5832000 	str	r2, [r3]
c01015d4:	e51b3008 	ldr	r3, [fp, #-8]
c01015d8:	e3a02002 	mov	r2, #2
c01015dc:	e5832004 	str	r2, [r3, #4]
c01015e0:	e30c041c 	movw	r0, #50204	; 0xc41c
c01015e4:	e34c0010 	movt	r0, #49168	; 0xc010
c01015e8:	eb000150 	bl	c0101b30 <arch_spinlock_init>
c01015ec:	e320f000 	nop	{0}
c01015f0:	e24bd004 	sub	sp, fp, #4
c01015f4:	e8bd8800 	pop	{fp, pc}

c01015f8 <kmalloc_clean>:
c01015f8:	e52db004 	push	{fp}		; (str fp, [sp, #-4]!)
c01015fc:	e28db000 	add	fp, sp, #0
c0101600:	e24dd014 	sub	sp, sp, #20
c0101604:	e30c3414 	movw	r3, #50196	; 0xc414
c0101608:	e34c3010 	movt	r3, #49168	; 0xc010
c010160c:	e5933000 	ldr	r3, [r3]
c0101610:	e50b3008 	str	r3, [fp, #-8]
c0101614:	ea000047 	b	c0101738 <kmalloc_clean+0x140>
c0101618:	e51b3008 	ldr	r3, [fp, #-8]
c010161c:	e283300c 	add	r3, r3, #12
c0101620:	e50b300c 	str	r3, [fp, #-12]
c0101624:	e3a03000 	mov	r3, #0
c0101628:	e50b3010 	str	r3, [fp, #-16]
c010162c:	e3a03000 	mov	r3, #0
c0101630:	e50b3014 	str	r3, [fp, #-20]	; 0xffffffec
c0101634:	ea00002f 	b	c01016f8 <kmalloc_clean+0x100>
c0101638:	e51b300c 	ldr	r3, [fp, #-12]
c010163c:	e5933004 	ldr	r3, [r3, #4]
c0101640:	e2033001 	and	r3, r3, #1
c0101644:	e3530000 	cmp	r3, #0
c0101648:	1a00001c 	bne	c01016c0 <kmalloc_clean+0xc8>
c010164c:	e51b3010 	ldr	r3, [fp, #-16]
c0101650:	e3530000 	cmp	r3, #0
c0101654:	0a00000e 	beq	c0101694 <kmalloc_clean+0x9c>
c0101658:	e51b3010 	ldr	r3, [fp, #-16]
c010165c:	e5932000 	ldr	r2, [r3]
c0101660:	e51b300c 	ldr	r3, [fp, #-12]
c0101664:	e5933000 	ldr	r3, [r3]
c0101668:	e0823003 	add	r3, r2, r3
c010166c:	e2832008 	add	r2, r3, #8
c0101670:	e51b3010 	ldr	r3, [fp, #-16]
c0101674:	e5832000 	str	r2, [r3]
c0101678:	e51b300c 	ldr	r3, [fp, #-12]
c010167c:	e5932004 	ldr	r2, [r3, #4]
c0101680:	e51b3010 	ldr	r3, [fp, #-16]
c0101684:	e5832004 	str	r2, [r3, #4]
c0101688:	e51b3010 	ldr	r3, [fp, #-16]
c010168c:	e50b300c 	str	r3, [fp, #-12]
c0101690:	ea000001 	b	c010169c <kmalloc_clean+0xa4>
c0101694:	e51b300c 	ldr	r3, [fp, #-12]
c0101698:	e50b3010 	str	r3, [fp, #-16]
c010169c:	e51b300c 	ldr	r3, [fp, #-12]
c01016a0:	e5933000 	ldr	r3, [r3]
c01016a4:	e51b2014 	ldr	r2, [fp, #-20]	; 0xffffffec
c01016a8:	e1520003 	cmp	r2, r3
c01016ac:	2a000005 	bcs	c01016c8 <kmalloc_clean+0xd0>
c01016b0:	e51b300c 	ldr	r3, [fp, #-12]
c01016b4:	e5933000 	ldr	r3, [r3]
c01016b8:	e50b3014 	str	r3, [fp, #-20]	; 0xffffffec
c01016bc:	ea000001 	b	c01016c8 <kmalloc_clean+0xd0>
c01016c0:	e3a03000 	mov	r3, #0
c01016c4:	e50b3010 	str	r3, [fp, #-16]
c01016c8:	e51b300c 	ldr	r3, [fp, #-12]
c01016cc:	e5933004 	ldr	r3, [r3, #4]
c01016d0:	e2033002 	and	r3, r3, #2
c01016d4:	e3530000 	cmp	r3, #0
c01016d8:	1a00000a 	bne	c0101708 <kmalloc_clean+0x110>
c01016dc:	e51b300c 	ldr	r3, [fp, #-12]
c01016e0:	e5933000 	ldr	r3, [r3]
c01016e4:	e2833008 	add	r3, r3, #8
c01016e8:	e51b200c 	ldr	r2, [fp, #-12]
c01016ec:	e0823003 	add	r3, r2, r3
c01016f0:	e50b300c 	str	r3, [fp, #-12]
c01016f4:	e320f000 	nop	{0}
c01016f8:	e51b300c 	ldr	r3, [fp, #-12]
c01016fc:	e3530000 	cmp	r3, #0
c0101700:	1affffcc 	bne	c0101638 <kmalloc_clean+0x40>
c0101704:	ea000000 	b	c010170c <kmalloc_clean+0x114>
c0101708:	e320f000 	nop	{0}
c010170c:	e51b3008 	ldr	r3, [fp, #-8]
c0101710:	e51b2014 	ldr	r2, [fp, #-20]	; 0xffffffec
c0101714:	e5832004 	str	r2, [r3, #4]
c0101718:	e51b3008 	ldr	r3, [fp, #-8]
c010171c:	e5933000 	ldr	r3, [r3]
c0101720:	e3530000 	cmp	r3, #0
c0101724:	0a000007 	beq	c0101748 <kmalloc_clean+0x150>
c0101728:	e51b3008 	ldr	r3, [fp, #-8]
c010172c:	e5933000 	ldr	r3, [r3]
c0101730:	e50b3008 	str	r3, [fp, #-8]
c0101734:	e320f000 	nop	{0}
c0101738:	e51b3008 	ldr	r3, [fp, #-8]
c010173c:	e3530000 	cmp	r3, #0
c0101740:	1affffb4 	bne	c0101618 <kmalloc_clean+0x20>
c0101744:	ea000000 	b	c010174c <kmalloc_clean+0x154>
c0101748:	e320f000 	nop	{0}
c010174c:	e320f000 	nop	{0}
c0101750:	e28bd000 	add	sp, fp, #0
c0101754:	e49db004 	pop	{fp}		; (ldr fp, [sp], #4)
c0101758:	e12fff1e 	bx	lr

c010175c <kmalloc>:
c010175c:	e92d4800 	push	{fp, lr}
c0101760:	e28db004 	add	fp, sp, #4
c0101764:	e24dd018 	sub	sp, sp, #24
c0101768:	e50b0018 	str	r0, [fp, #-24]	; 0xffffffe8
c010176c:	e30c041c 	movw	r0, #50204	; 0xc41c
c0101770:	e34c0010 	movt	r0, #49168	; 0xc010
c0101774:	eb0000ee 	bl	c0101b34 <arch_spinlock_lock>
c0101778:	e30c3414 	movw	r3, #50196	; 0xc414
c010177c:	e34c3010 	movt	r3, #49168	; 0xc010
c0101780:	e5933000 	ldr	r3, [r3]
c0101784:	e50b3008 	str	r3, [fp, #-8]
c0101788:	ea000058 	b	c01018f0 <kmalloc+0x194>
c010178c:	e51b3008 	ldr	r3, [fp, #-8]
c0101790:	e5933004 	ldr	r3, [r3, #4]
c0101794:	e51b2018 	ldr	r2, [fp, #-24]	; 0xffffffe8
c0101798:	e1520003 	cmp	r2, r3
c010179c:	8a00004b 	bhi	c01018d0 <kmalloc+0x174>
c01017a0:	e51b3008 	ldr	r3, [fp, #-8]
c01017a4:	e283300c 	add	r3, r3, #12
c01017a8:	e50b300c 	str	r3, [fp, #-12]
c01017ac:	ea000042 	b	c01018bc <kmalloc+0x160>
c01017b0:	e51b300c 	ldr	r3, [fp, #-12]
c01017b4:	e5933004 	ldr	r3, [r3, #4]
c01017b8:	e2033001 	and	r3, r3, #1
c01017bc:	e3530000 	cmp	r3, #0
c01017c0:	1a000031 	bne	c010188c <kmalloc+0x130>
c01017c4:	e51b300c 	ldr	r3, [fp, #-12]
c01017c8:	e5933000 	ldr	r3, [r3]
c01017cc:	e51b2018 	ldr	r2, [fp, #-24]	; 0xffffffe8
c01017d0:	e1520003 	cmp	r2, r3
c01017d4:	8a00002c 	bhi	c010188c <kmalloc+0x130>
c01017d8:	e51b300c 	ldr	r3, [fp, #-12]
c01017dc:	e5932000 	ldr	r2, [r3]
c01017e0:	e51b3018 	ldr	r3, [fp, #-24]	; 0xffffffe8
c01017e4:	e0423003 	sub	r3, r2, r3
c01017e8:	e2433008 	sub	r3, r3, #8
c01017ec:	e50b3010 	str	r3, [fp, #-16]
c01017f0:	e51b3010 	ldr	r3, [fp, #-16]
c01017f4:	e3530008 	cmp	r3, #8
c01017f8:	da000017 	ble	c010185c <kmalloc+0x100>
c01017fc:	e51b3018 	ldr	r3, [fp, #-24]	; 0xffffffe8
c0101800:	e2833008 	add	r3, r3, #8
c0101804:	e51b200c 	ldr	r2, [fp, #-12]
c0101808:	e0823003 	add	r3, r2, r3
c010180c:	e50b3014 	str	r3, [fp, #-20]	; 0xffffffec
c0101810:	e51b300c 	ldr	r3, [fp, #-12]
c0101814:	e5932004 	ldr	r2, [r3, #4]
c0101818:	e51b3014 	ldr	r3, [fp, #-20]	; 0xffffffec
c010181c:	e5832004 	str	r2, [r3, #4]
c0101820:	e51b300c 	ldr	r3, [fp, #-12]
c0101824:	e5933004 	ldr	r3, [r3, #4]
c0101828:	e3c32002 	bic	r2, r3, #2
c010182c:	e51b300c 	ldr	r3, [fp, #-12]
c0101830:	e5832004 	str	r2, [r3, #4]
c0101834:	e51b300c 	ldr	r3, [fp, #-12]
c0101838:	e5932000 	ldr	r2, [r3]
c010183c:	e51b3018 	ldr	r3, [fp, #-24]	; 0xffffffe8
c0101840:	e0423003 	sub	r3, r2, r3
c0101844:	e2432008 	sub	r2, r3, #8
c0101848:	e51b3014 	ldr	r3, [fp, #-20]	; 0xffffffec
c010184c:	e5832000 	str	r2, [r3]
c0101850:	e51b300c 	ldr	r3, [fp, #-12]
c0101854:	e51b2018 	ldr	r2, [fp, #-24]	; 0xffffffe8
c0101858:	e5832000 	str	r2, [r3]
c010185c:	e51b300c 	ldr	r3, [fp, #-12]
c0101860:	e5933004 	ldr	r3, [r3, #4]
c0101864:	e3832001 	orr	r2, r3, #1
c0101868:	e51b300c 	ldr	r3, [fp, #-12]
c010186c:	e5832004 	str	r2, [r3, #4]
c0101870:	ebffff60 	bl	c01015f8 <kmalloc_clean>
c0101874:	e30c041c 	movw	r0, #50204	; 0xc41c
c0101878:	e34c0010 	movt	r0, #49168	; 0xc010
c010187c:	eb0000ad 	bl	c0101b38 <arch_spinlock_unlock>
c0101880:	e51b300c 	ldr	r3, [fp, #-12]
c0101884:	e2833008 	add	r3, r3, #8
c0101888:	ea000021 	b	c0101914 <kmalloc+0x1b8>
c010188c:	e51b300c 	ldr	r3, [fp, #-12]
c0101890:	e5933004 	ldr	r3, [r3, #4]
c0101894:	e2033002 	and	r3, r3, #2
c0101898:	e3530000 	cmp	r3, #0
c010189c:	1a00000a 	bne	c01018cc <kmalloc+0x170>
c01018a0:	e51b300c 	ldr	r3, [fp, #-12]
c01018a4:	e5933000 	ldr	r3, [r3]
c01018a8:	e2833008 	add	r3, r3, #8
c01018ac:	e51b200c 	ldr	r2, [fp, #-12]
c01018b0:	e0823003 	add	r3, r2, r3
c01018b4:	e50b300c 	str	r3, [fp, #-12]
c01018b8:	e320f000 	nop	{0}
c01018bc:	e51b300c 	ldr	r3, [fp, #-12]
c01018c0:	e3530000 	cmp	r3, #0
c01018c4:	1affffb9 	bne	c01017b0 <kmalloc+0x54>
c01018c8:	ea000000 	b	c01018d0 <kmalloc+0x174>
c01018cc:	e320f000 	nop	{0}
c01018d0:	e51b3008 	ldr	r3, [fp, #-8]
c01018d4:	e5933000 	ldr	r3, [r3]
c01018d8:	e3530000 	cmp	r3, #0
c01018dc:	0a000007 	beq	c0101900 <kmalloc+0x1a4>
c01018e0:	e51b3008 	ldr	r3, [fp, #-8]
c01018e4:	e5933000 	ldr	r3, [r3]
c01018e8:	e50b3008 	str	r3, [fp, #-8]
c01018ec:	e320f000 	nop	{0}
c01018f0:	e51b3008 	ldr	r3, [fp, #-8]
c01018f4:	e3530000 	cmp	r3, #0
c01018f8:	1affffa3 	bne	c010178c <kmalloc+0x30>
c01018fc:	ea000000 	b	c0101904 <kmalloc+0x1a8>
c0101900:	e320f000 	nop	{0}
c0101904:	e30c041c 	movw	r0, #50204	; 0xc41c
c0101908:	e34c0010 	movt	r0, #49168	; 0xc010
c010190c:	eb000089 	bl	c0101b38 <arch_spinlock_unlock>
c0101910:	e3a03000 	mov	r3, #0
c0101914:	e1a00003 	mov	r0, r3
c0101918:	e24bd004 	sub	sp, fp, #4
c010191c:	e8bd8800 	pop	{fp, pc}

c0101920 <kfree>:
c0101920:	e92d4800 	push	{fp, lr}
c0101924:	e28db004 	add	fp, sp, #4
c0101928:	e24dd010 	sub	sp, sp, #16
c010192c:	e50b0010 	str	r0, [fp, #-16]
c0101930:	e30c041c 	movw	r0, #50204	; 0xc41c
c0101934:	e34c0010 	movt	r0, #49168	; 0xc010
c0101938:	eb00007d 	bl	c0101b34 <arch_spinlock_lock>
c010193c:	e51b3010 	ldr	r3, [fp, #-16]
c0101940:	e2433008 	sub	r3, r3, #8
c0101944:	e50b3008 	str	r3, [fp, #-8]
c0101948:	e51b3008 	ldr	r3, [fp, #-8]
c010194c:	e5933004 	ldr	r3, [r3, #4]
c0101950:	e3c32001 	bic	r2, r3, #1
c0101954:	e51b3008 	ldr	r3, [fp, #-8]
c0101958:	e5832004 	str	r2, [r3, #4]
c010195c:	ebffff25 	bl	c01015f8 <kmalloc_clean>
c0101960:	e30c041c 	movw	r0, #50204	; 0xc41c
c0101964:	e34c0010 	movt	r0, #49168	; 0xc010
c0101968:	eb000072 	bl	c0101b38 <arch_spinlock_unlock>
c010196c:	e320f000 	nop	{0}
c0101970:	e24bd004 	sub	sp, fp, #4
c0101974:	e8bd8800 	pop	{fp, pc}

c0101978 <sysclock_init>:
c0101978:	e92d4800 	push	{fp, lr}
c010197c:	e28db004 	add	fp, sp, #4
c0101980:	e30c3420 	movw	r3, #50208	; 0xc420
c0101984:	e34c3010 	movt	r3, #49168	; 0xc010
c0101988:	e3a00000 	mov	r0, #0
c010198c:	e3a01000 	mov	r1, #0
c0101990:	e1c300f0 	strd	r0, [r3]
c0101994:	eb000516 	bl	c0102df4 <arch_sysclock_init>
c0101998:	e320f000 	nop	{0}
c010199c:	e8bd8800 	pop	{fp, pc}

c01019a0 <sysclock_enable>:
c01019a0:	e92d4800 	push	{fp, lr}
c01019a4:	e28db004 	add	fp, sp, #4
c01019a8:	eb000518 	bl	c0102e10 <arch_sysclock_enable>
c01019ac:	e320f000 	nop	{0}
c01019b0:	e8bd8800 	pop	{fp, pc}

c01019b4 <sysclock_disable>:
c01019b4:	e92d4800 	push	{fp, lr}
c01019b8:	e28db004 	add	fp, sp, #4
c01019bc:	eb00052d 	bl	c0102e78 <arch_sysclock_disable>
c01019c0:	e320f000 	nop	{0}
c01019c4:	e8bd8800 	pop	{fp, pc}

c01019c8 <sysclock_cb>:
c01019c8:	e52db004 	push	{fp}		; (str fp, [sp, #-4]!)
c01019cc:	e28db000 	add	fp, sp, #0
c01019d0:	e30c3420 	movw	r3, #50208	; 0xc420
c01019d4:	e34c3010 	movt	r3, #49168	; 0xc010
c01019d8:	e1c320d0 	ldrd	r2, [r3]
c01019dc:	e2920001 	adds	r0, r2, #1
c01019e0:	e2a31000 	adc	r1, r3, #0
c01019e4:	e30c3420 	movw	r3, #50208	; 0xc420
c01019e8:	e34c3010 	movt	r3, #49168	; 0xc010
c01019ec:	e1c300f0 	strd	r0, [r3]
c01019f0:	e320f000 	nop	{0}
c01019f4:	e28bd000 	add	sp, fp, #0
c01019f8:	e49db004 	pop	{fp}		; (ldr fp, [sp], #4)
c01019fc:	e12fff1e 	bx	lr

c0101a00 <ab_rwinvalid>:
c0101a00:	e1a0000e 	mov	r0, lr
c0101a04:	eb00008b 	bl	c0101c38 <arch_rwinvalid>
c0101a08:	eafffffe 	b	c0101a08 <ab_rwinvalid+0x8>

c0101a0c <irq>:
c0101a0c:	eb00007b 	bl	c0101c00 <arch_irq>

c0101a10 <_start>:
c0101a10:	e3a00000 	mov	r0, #0
c0101a14:	ee070f17 	mcr	15, 0, r0, cr7, cr7, {0}
c0101a18:	ee080f17 	mcr	15, 0, r0, cr8, cr7, {0}
c0101a1c:	ee110f10 	mrc	15, 0, r0, cr1, cr0, {0}
c0101a20:	e3c00a01 	bic	r0, r0, #4096	; 0x1000
c0101a24:	e3c00004 	bic	r0, r0, #4
c0101a28:	ee010f10 	mcr	15, 0, r0, cr1, cr0, {0}
c0101a2c:	e59f00c0 	ldr	r0, [pc, #192]	; c0101af4 <.highhalf+0x60>
c0101a30:	e59f20bc 	ldr	r2, [pc, #188]	; c0101af4 <.highhalf+0x60>
c0101a34:	e2822a03 	add	r2, r2, #12288	; 0x3000
c0101a38:	e59f10b8 	ldr	r1, [pc, #184]	; c0101af8 <.highhalf+0x64>
c0101a3c:	e5801000 	str	r1, [r0]
c0101a40:	e5821000 	str	r1, [r2]
c0101a44:	e59f10b0 	ldr	r1, [pc, #176]	; c0101afc <.highhalf+0x68>
c0101a48:	e5801004 	str	r1, [r0, #4]
c0101a4c:	e5821004 	str	r1, [r2, #4]
c0101a50:	e59f10a8 	ldr	r1, [pc, #168]	; c0101b00 <.highhalf+0x6c>
c0101a54:	e5801008 	str	r1, [r0, #8]
c0101a58:	e5821008 	str	r1, [r2, #8]
c0101a5c:	e59f10a0 	ldr	r1, [pc, #160]	; c0101b04 <.highhalf+0x70>
c0101a60:	e580100c 	str	r1, [r0, #12]
c0101a64:	e582100c 	str	r1, [r2, #12]
c0101a68:	e3a00003 	mov	r0, #3
c0101a6c:	ee030f10 	mcr	15, 0, r0, cr3, cr0, {0}
c0101a70:	e59f007c 	ldr	r0, [pc, #124]	; c0101af4 <.highhalf+0x60>
c0101a74:	ee020f10 	mcr	15, 0, r0, cr2, cr0, {0}
c0101a78:	ee020f30 	mcr	15, 0, r0, cr2, cr0, {1}
c0101a7c:	ee110f10 	mrc	15, 0, r0, cr1, cr0, {0}
c0101a80:	e3800001 	orr	r0, r0, #1
c0101a84:	e3800502 	orr	r0, r0, #8388608	; 0x800000
c0101a88:	ee010f10 	mcr	15, 0, r0, cr1, cr0, {0}
c0101a8c:	e59f0074 	ldr	r0, [pc, #116]	; c0101b08 <.highhalf+0x74>
c0101a90:	e1a0f000 	mov	pc, r0

c0101a94 <.highhalf>:
c0101a94:	e59f0070 	ldr	r0, [pc, #112]	; c0101b0c <.highhalf+0x78>
c0101a98:	e3a01000 	mov	r1, #0
c0101a9c:	e5801000 	str	r1, [r0]
c0101aa0:	e5801004 	str	r1, [r0, #4]
c0101aa4:	e5801008 	str	r1, [r0, #8]
c0101aa8:	e580100c 	str	r1, [r0, #12]
c0101aac:	e329f0d2 	msr	CPSR_fc, #210	; 0xd2
c0101ab0:	e59fd058 	ldr	sp, [pc, #88]	; c0101b10 <.highhalf+0x7c>
c0101ab4:	e329f0d1 	msr	CPSR_fc, #209	; 0xd1
c0101ab8:	e59fd054 	ldr	sp, [pc, #84]	; c0101b14 <.highhalf+0x80>
c0101abc:	e329f0d7 	msr	CPSR_fc, #215	; 0xd7
c0101ac0:	e59fd050 	ldr	sp, [pc, #80]	; c0101b18 <.highhalf+0x84>
c0101ac4:	e329f0cb 	msr	CPSR_fc, #203	; 0xcb
c0101ac8:	e59fd04c 	ldr	sp, [pc, #76]	; c0101b1c <.highhalf+0x88>
c0101acc:	e329f0df 	msr	CPSR_fc, #223	; 0xdf
c0101ad0:	e59fd048 	ldr	sp, [pc, #72]	; c0101b20 <.highhalf+0x8c>
c0101ad4:	e329f0d3 	msr	CPSR_fc, #211	; 0xd3
c0101ad8:	e59fd044 	ldr	sp, [pc, #68]	; c0101b24 <.highhalf+0x90>
c0101adc:	e59f0044 	ldr	r0, [pc, #68]	; c0101b28 <.highhalf+0x94>
c0101ae0:	ee0c0f10 	mcr	15, 0, r0, cr12, cr0, {0}
c0101ae4:	e59f0040 	ldr	r0, [pc, #64]	; c0101b2c <.highhalf+0x98>
c0101ae8:	eb000013 	bl	c0101b3c <archmain>
c0101aec:	eafffffe 	b	c0101aec <.highhalf+0x58>
c0101af0:	e1000070 	hlt	0x0000
c0101af4:	00108000 	.word	0x00108000
c0101af8:	00000402 	.word	0x00000402
c0101afc:	00100402 	.word	0x00100402
c0101b00:	00200402 	.word	0x00200402
c0101b04:	00300402 	.word	0x00300402
c0101b08:	c0101a94 	.word	0xc0101a94
c0101b0c:	c0108000 	.word	0xc0108000
c0101b10:	c010d430 	.word	0xc010d430
c0101b14:	c010e430 	.word	0xc010e430
c0101b18:	c010f430 	.word	0xc010f430
c0101b1c:	c0110430 	.word	0xc0110430
c0101b20:	c0111430 	.word	0xc0111430
c0101b24:	c0112430 	.word	0xc0112430
c0101b28:	c0100000 	.word	0xc0100000
c0101b2c:	c0112430 	.word	0xc0112430

c0101b30 <arch_spinlock_init>:
c0101b30:	e12fff1e 	bx	lr

c0101b34 <arch_spinlock_lock>:
c0101b34:	e12fff1e 	bx	lr

c0101b38 <arch_spinlock_unlock>:
c0101b38:	e12fff1e 	bx	lr

c0101b3c <archmain>:
c0101b3c:	e92d4800 	push	{fp, lr}
c0101b40:	e28db004 	add	fp, sp, #4
c0101b44:	e24dd008 	sub	sp, sp, #8
c0101b48:	e50b0008 	str	r0, [fp, #-8]
c0101b4c:	e3a01901 	mov	r1, #16384	; 0x4000
c0101b50:	e51b0008 	ldr	r0, [fp, #-8]
c0101b54:	ebfffe73 	bl	c0101528 <kmalloc_init>
c0101b58:	eb0000ca 	bl	c0101e88 <arch_pmm_init>
c0101b5c:	eb000339 	bl	c0102848 <arch_vas_init>
c0101b60:	ebfff96c 	bl	c0100118 <kdebuglog_init>
c0101b64:	e3031be0 	movw	r1, #15328	; 0x3be0
c0101b68:	e34c1010 	movt	r1, #49168	; 0xc010
c0101b6c:	e3030be8 	movw	r0, #15336	; 0x3be8
c0101b70:	e34c0010 	movt	r0, #49168	; 0xc010
c0101b74:	ebfff950 	bl	c01000bc <kprintf>
c0101b78:	eb000317 	bl	c01027dc <arch_pmm_get_available>
c0101b7c:	e1a03000 	mov	r3, r0
c0101b80:	e1a03523 	lsr	r3, r3, #10
c0101b84:	e1a01003 	mov	r1, r3
c0101b88:	e3030bfc 	movw	r0, #15356	; 0x3bfc
c0101b8c:	e34c0010 	movt	r0, #49168	; 0xc010
c0101b90:	ebfff949 	bl	c01000bc <kprintf>
c0101b94:	eb000319 	bl	c0102800 <arch_pmm_get_free>
c0101b98:	e1a03000 	mov	r3, r0
c0101b9c:	e1a03523 	lsr	r3, r3, #10
c0101ba0:	e1a01003 	mov	r1, r3
c0101ba4:	e3030c24 	movw	r0, #15396	; 0x3c24
c0101ba8:	e34c0010 	movt	r0, #49168	; 0xc010
c0101bac:	ebfff942 	bl	c01000bc <kprintf>
c0101bb0:	eb00031b 	bl	c0102824 <arch_pmm_get_used>
c0101bb4:	e1a03000 	mov	r3, r0
c0101bb8:	e1a03523 	lsr	r3, r3, #10
c0101bbc:	e1a01003 	mov	r1, r3
c0101bc0:	e3030c4c 	movw	r0, #15436	; 0x3c4c
c0101bc4:	e34c0010 	movt	r0, #49168	; 0xc010
c0101bc8:	ebfff93b 	bl	c01000bc <kprintf>
c0101bcc:	eb0004bb 	bl	c0102ec0 <gic_init>
c0101bd0:	eb00059f 	bl	c0103254 <cpu_enable_interrupts>
c0101bd4:	e3a00000 	mov	r0, #0
c0101bd8:	eb000569 	bl	c0103184 <gic_end_interrupt>
c0101bdc:	e3a01000 	mov	r1, #0
c0101be0:	e3a00000 	mov	r0, #0
c0101be4:	eb000526 	bl	c0103084 <gic_set_priority>
c0101be8:	e3a02000 	mov	r2, #0
c0101bec:	e3a01000 	mov	r1, #0
c0101bf0:	e3a00002 	mov	r0, #2
c0101bf4:	eb000570 	bl	c01031bc <gic_sgi>
c0101bf8:	ebfff908 	bl	c0100020 <main>
c0101bfc:	eafffffe 	b	c0101bfc <archmain+0xc0>

c0101c00 <arch_irq>:
c0101c00:	e92d4800 	push	{fp, lr}
c0101c04:	e28db004 	add	fp, sp, #4
c0101c08:	e24dd008 	sub	sp, sp, #8
c0101c0c:	eb000554 	bl	c0103164 <gic_ack_interrupt>
c0101c10:	e50b0008 	str	r0, [fp, #-8]
c0101c14:	e51b1008 	ldr	r1, [fp, #-8]
c0101c18:	e3030c74 	movw	r0, #15476	; 0x3c74
c0101c1c:	e34c0010 	movt	r0, #49168	; 0xc010
c0101c20:	ebfff925 	bl	c01000bc <kprintf>
c0101c24:	e51b3008 	ldr	r3, [fp, #-8]
c0101c28:	e6ef3073 	uxtb	r3, r3
c0101c2c:	e1a00003 	mov	r0, r3
c0101c30:	eb000553 	bl	c0103184 <gic_end_interrupt>
c0101c34:	eafffffe 	b	c0101c34 <arch_irq+0x34>

c0101c38 <arch_rwinvalid>:
c0101c38:	e92d4800 	push	{fp, lr}
c0101c3c:	e28db004 	add	fp, sp, #4
c0101c40:	e24dd008 	sub	sp, sp, #8
c0101c44:	e50b0008 	str	r0, [fp, #-8]
c0101c48:	e51b1008 	ldr	r1, [fp, #-8]
c0101c4c:	e3030c80 	movw	r0, #15488	; 0x3c80
c0101c50:	e34c0010 	movt	r0, #49168	; 0xc010
c0101c54:	ebfff918 	bl	c01000bc <kprintf>
c0101c58:	eafffffe 	b	c0101c58 <arch_rwinvalid+0x20>

c0101c5c <arch_debugprint_putc>:
c0101c5c:	e52db004 	push	{fp}		; (str fp, [sp, #-4]!)
c0101c60:	e28db000 	add	fp, sp, #0
c0101c64:	e24dd00c 	sub	sp, sp, #12
c0101c68:	e1a03000 	mov	r3, r0
c0101c6c:	e54b3005 	strb	r3, [fp, #-5]
c0101c70:	e320f000 	nop	{0}
c0101c74:	e301302c 	movw	r3, #4140	; 0x102c
c0101c78:	e3403040 	movt	r3, #64	; 0x40
c0101c7c:	e5933000 	ldr	r3, [r3]
c0101c80:	e2033901 	and	r3, r3, #16384	; 0x4000
c0101c84:	e3530000 	cmp	r3, #0
c0101c88:	1afffff9 	bne	c0101c74 <arch_debugprint_putc+0x18>
c0101c8c:	e3013030 	movw	r3, #4144	; 0x1030
c0101c90:	e3403040 	movt	r3, #64	; 0x40
c0101c94:	e55b2005 	ldrb	r2, [fp, #-5]
c0101c98:	e5832000 	str	r2, [r3]
c0101c9c:	e320f000 	nop	{0}
c0101ca0:	e301302c 	movw	r3, #4140	; 0x102c
c0101ca4:	e3403040 	movt	r3, #64	; 0x40
c0101ca8:	e5933000 	ldr	r3, [r3]
c0101cac:	e2033b02 	and	r3, r3, #2048	; 0x800
c0101cb0:	e3530000 	cmp	r3, #0
c0101cb4:	1afffff9 	bne	c0101ca0 <arch_debugprint_putc+0x44>
c0101cb8:	e320f000 	nop	{0}
c0101cbc:	e320f000 	nop	{0}
c0101cc0:	e28bd000 	add	sp, fp, #0
c0101cc4:	e49db004 	pop	{fp}		; (ldr fp, [sp], #4)
c0101cc8:	e12fff1e 	bx	lr

c0101ccc <arch_debugprint_init>:
c0101ccc:	e92d4800 	push	{fp, lr}
c0101cd0:	e28db004 	add	fp, sp, #4
c0101cd4:	e24dd008 	sub	sp, sp, #8
c0101cd8:	e3a02008 	mov	r2, #8
c0101cdc:	e3a01a01 	mov	r1, #4096	; 0x1000
c0101ce0:	e3401040 	movt	r1, #64	; 0x40
c0101ce4:	e3a00a01 	mov	r0, #4096	; 0x1000
c0101ce8:	e34e0000 	movt	r0, #57344	; 0xe000
c0101cec:	eb000337 	bl	c01029d0 <arch_vas_map>
c0101cf0:	e320f000 	nop	{0}
c0101cf4:	e301302c 	movw	r3, #4140	; 0x102c
c0101cf8:	e3403040 	movt	r3, #64	; 0x40
c0101cfc:	e5933000 	ldr	r3, [r3]
c0101d00:	e2033b02 	and	r3, r3, #2048	; 0x800
c0101d04:	e3530000 	cmp	r3, #0
c0101d08:	1afffff9 	bne	c0101cf4 <arch_debugprint_init+0x28>
c0101d0c:	e320f000 	nop	{0}
c0101d10:	e301302c 	movw	r3, #4140	; 0x102c
c0101d14:	e3403040 	movt	r3, #64	; 0x40
c0101d18:	e5933000 	ldr	r3, [r3]
c0101d1c:	e2033901 	and	r3, r3, #16384	; 0x4000
c0101d20:	e3530000 	cmp	r3, #0
c0101d24:	1afffff9 	bne	c0101d10 <arch_debugprint_init+0x44>
c0101d28:	e3a03000 	mov	r3, #0
c0101d2c:	e50b3008 	str	r3, [fp, #-8]
c0101d30:	e3a03a01 	mov	r3, #4096	; 0x1000
c0101d34:	e3403040 	movt	r3, #64	; 0x40
c0101d38:	e5933000 	ldr	r3, [r3]
c0101d3c:	e50b3008 	str	r3, [fp, #-8]
c0101d40:	e51b3008 	ldr	r3, [fp, #-8]
c0101d44:	e3c33014 	bic	r3, r3, #20
c0101d48:	e50b3008 	str	r3, [fp, #-8]
c0101d4c:	e51b3008 	ldr	r3, [fp, #-8]
c0101d50:	e3833028 	orr	r3, r3, #40	; 0x28
c0101d54:	e50b3008 	str	r3, [fp, #-8]
c0101d58:	e3a03a01 	mov	r3, #4096	; 0x1000
c0101d5c:	e3403040 	movt	r3, #64	; 0x40
c0101d60:	e51b2008 	ldr	r2, [fp, #-8]
c0101d64:	e5832000 	str	r2, [r3]
c0101d68:	e3013004 	movw	r3, #4100	; 0x1004
c0101d6c:	e3403040 	movt	r3, #64	; 0x40
c0101d70:	e3a02000 	mov	r2, #0
c0101d74:	e5832000 	str	r2, [r3]
c0101d78:	e3013004 	movw	r3, #4100	; 0x1004
c0101d7c:	e3403040 	movt	r3, #64	; 0x40
c0101d80:	e5932000 	ldr	r2, [r3]
c0101d84:	e3013004 	movw	r3, #4100	; 0x1004
c0101d88:	e3403040 	movt	r3, #64	; 0x40
c0101d8c:	e3c22001 	bic	r2, r2, #1
c0101d90:	e5832000 	str	r2, [r3]
c0101d94:	e3012004 	movw	r2, #4100	; 0x1004
c0101d98:	e3402040 	movt	r2, #64	; 0x40
c0101d9c:	e3013004 	movw	r3, #4100	; 0x1004
c0101da0:	e3403040 	movt	r3, #64	; 0x40
c0101da4:	e5922000 	ldr	r2, [r2]
c0101da8:	e5832000 	str	r2, [r3]
c0101dac:	e3013004 	movw	r3, #4100	; 0x1004
c0101db0:	e3403040 	movt	r3, #64	; 0x40
c0101db4:	e5932000 	ldr	r2, [r3]
c0101db8:	e3013004 	movw	r3, #4100	; 0x1004
c0101dbc:	e3403040 	movt	r3, #64	; 0x40
c0101dc0:	e3822020 	orr	r2, r2, #32
c0101dc4:	e5832000 	str	r2, [r3]
c0101dc8:	e3012004 	movw	r2, #4100	; 0x1004
c0101dcc:	e3402040 	movt	r2, #64	; 0x40
c0101dd0:	e3013004 	movw	r3, #4100	; 0x1004
c0101dd4:	e3403040 	movt	r3, #64	; 0x40
c0101dd8:	e5922000 	ldr	r2, [r2]
c0101ddc:	e5832000 	str	r2, [r3]
c0101de0:	e3012004 	movw	r2, #4100	; 0x1004
c0101de4:	e3402040 	movt	r2, #64	; 0x40
c0101de8:	e3013004 	movw	r3, #4100	; 0x1004
c0101dec:	e3403040 	movt	r3, #64	; 0x40
c0101df0:	e5922000 	ldr	r2, [r2]
c0101df4:	e5832000 	str	r2, [r3]
c0101df8:	e3013034 	movw	r3, #4148	; 0x1034
c0101dfc:	e3403040 	movt	r3, #64	; 0x40
c0101e00:	e3a02006 	mov	r2, #6
c0101e04:	e5832000 	str	r2, [r3]
c0101e08:	e3013018 	movw	r3, #4120	; 0x1018
c0101e0c:	e3403040 	movt	r3, #64	; 0x40
c0101e10:	e3a0207c 	mov	r2, #124	; 0x7c
c0101e14:	e5832000 	str	r2, [r3]
c0101e18:	e3a03a01 	mov	r3, #4096	; 0x1000
c0101e1c:	e3403040 	movt	r3, #64	; 0x40
c0101e20:	e5932000 	ldr	r2, [r3]
c0101e24:	e3a03a01 	mov	r3, #4096	; 0x1000
c0101e28:	e3403040 	movt	r3, #64	; 0x40
c0101e2c:	e3822003 	orr	r2, r2, #3
c0101e30:	e5832000 	str	r2, [r3]
c0101e34:	e3a03a01 	mov	r3, #4096	; 0x1000
c0101e38:	e3403040 	movt	r3, #64	; 0x40
c0101e3c:	e5933000 	ldr	r3, [r3]
c0101e40:	e50b3008 	str	r3, [fp, #-8]
c0101e44:	e51b3008 	ldr	r3, [fp, #-8]
c0101e48:	e3833014 	orr	r3, r3, #20
c0101e4c:	e50b3008 	str	r3, [fp, #-8]
c0101e50:	e51b3008 	ldr	r3, [fp, #-8]
c0101e54:	e3c33028 	bic	r3, r3, #40	; 0x28
c0101e58:	e50b3008 	str	r3, [fp, #-8]
c0101e5c:	e3a03a01 	mov	r3, #4096	; 0x1000
c0101e60:	e3403040 	movt	r3, #64	; 0x40
c0101e64:	e51b2008 	ldr	r2, [fp, #-8]
c0101e68:	e5832000 	str	r2, [r3]
c0101e6c:	e3013008 	movw	r3, #4104	; 0x1008
c0101e70:	e3403040 	movt	r3, #64	; 0x40
c0101e74:	e3a02001 	mov	r2, #1
c0101e78:	e5832000 	str	r2, [r3]
c0101e7c:	e320f000 	nop	{0}
c0101e80:	e24bd004 	sub	sp, fp, #4
c0101e84:	e8bd8800 	pop	{fp, pc}

c0101e88 <arch_pmm_init>:
c0101e88:	e92d4810 	push	{r4, fp, lr}
c0101e8c:	e28db008 	add	fp, sp, #8
c0101e90:	e24dd024 	sub	sp, sp, #36	; 0x24
c0101e94:	e3a03000 	mov	r3, #0
c0101e98:	e50b3010 	str	r3, [fp, #-16]
c0101e9c:	ea000022 	b	c0101f2c <arch_pmm_init+0xa4>
c0101ea0:	e3062440 	movw	r2, #25664	; 0x6440
c0101ea4:	e34c2013 	movt	r2, #49171	; 0xc013
c0101ea8:	e51b1010 	ldr	r1, [fp, #-16]
c0101eac:	e1a03001 	mov	r3, r1
c0101eb0:	e1a03083 	lsl	r3, r3, #1
c0101eb4:	e0833001 	add	r3, r3, r1
c0101eb8:	e1a03103 	lsl	r3, r3, #2
c0101ebc:	e0823003 	add	r3, r2, r3
c0101ec0:	e3a02000 	mov	r2, #0
c0101ec4:	e5832000 	str	r2, [r3]
c0101ec8:	e3062440 	movw	r2, #25664	; 0x6440
c0101ecc:	e34c2013 	movt	r2, #49171	; 0xc013
c0101ed0:	e51b1010 	ldr	r1, [fp, #-16]
c0101ed4:	e1a03001 	mov	r3, r1
c0101ed8:	e1a03083 	lsl	r3, r3, #1
c0101edc:	e0833001 	add	r3, r3, r1
c0101ee0:	e1a03103 	lsl	r3, r3, #2
c0101ee4:	e0823003 	add	r3, r2, r3
c0101ee8:	e2833004 	add	r3, r3, #4
c0101eec:	e3a02000 	mov	r2, #0
c0101ef0:	e5832000 	str	r2, [r3]
c0101ef4:	e3062440 	movw	r2, #25664	; 0x6440
c0101ef8:	e34c2013 	movt	r2, #49171	; 0xc013
c0101efc:	e51b1010 	ldr	r1, [fp, #-16]
c0101f00:	e1a03001 	mov	r3, r1
c0101f04:	e1a03083 	lsl	r3, r3, #1
c0101f08:	e0833001 	add	r3, r3, r1
c0101f0c:	e1a03103 	lsl	r3, r3, #2
c0101f10:	e0823003 	add	r3, r2, r3
c0101f14:	e2833008 	add	r3, r3, #8
c0101f18:	e3a02000 	mov	r2, #0
c0101f1c:	e5832000 	str	r2, [r3]
c0101f20:	e51b3010 	ldr	r3, [fp, #-16]
c0101f24:	e2833001 	add	r3, r3, #1
c0101f28:	e50b3010 	str	r3, [fp, #-16]
c0101f2c:	e51b3010 	ldr	r3, [fp, #-16]
c0101f30:	e3530003 	cmp	r3, #3
c0101f34:	daffffd9 	ble	c0101ea0 <arch_pmm_init+0x18>
c0101f38:	e306343c 	movw	r3, #25660	; 0x643c
c0101f3c:	e34c3013 	movt	r3, #49171	; 0xc013
c0101f40:	e3a02000 	mov	r2, #0
c0101f44:	e5832000 	str	r2, [r3]
c0101f48:	e3063434 	movw	r3, #25652	; 0x6434
c0101f4c:	e34c3013 	movt	r3, #49171	; 0xc013
c0101f50:	e3a02000 	mov	r2, #0
c0101f54:	e5832000 	str	r2, [r3]
c0101f58:	e3063438 	movw	r3, #25656	; 0x6438
c0101f5c:	e34c3013 	movt	r3, #49171	; 0xc013
c0101f60:	e3a02000 	mov	r2, #0
c0101f64:	e5832000 	str	r2, [r3]
c0101f68:	e3a03000 	mov	r3, #0
c0101f6c:	e50b3014 	str	r3, [fp, #-20]	; 0xffffffec
c0101f70:	ea000076 	b	c0102150 <arch_pmm_init+0x2c8>
c0101f74:	e51b3014 	ldr	r3, [fp, #-20]	; 0xffffffec
c0101f78:	e2832001 	add	r2, r3, #1
c0101f7c:	e3033ca8 	movw	r3, #15528	; 0x3ca8
c0101f80:	e34c3010 	movt	r3, #49168	; 0xc010
c0101f84:	e7933102 	ldr	r3, [r3, r2, lsl #2]
c0101f88:	e54b3021 	strb	r3, [fp, #-33]	; 0xffffffdf
c0101f8c:	e51b3014 	ldr	r3, [fp, #-20]	; 0xffffffec
c0101f90:	e2832001 	add	r2, r3, #1
c0101f94:	e3043004 	movw	r3, #16388	; 0x4004
c0101f98:	e34c3010 	movt	r3, #49168	; 0xc010
c0101f9c:	e7933102 	ldr	r3, [r3, r2, lsl #2]
c0101fa0:	e50b3028 	str	r3, [fp, #-40]	; 0xffffffd8
c0101fa4:	e51b3014 	ldr	r3, [fp, #-20]	; 0xffffffec
c0101fa8:	e2832001 	add	r2, r3, #1
c0101fac:	e3033c98 	movw	r3, #15512	; 0x3c98
c0101fb0:	e34c3010 	movt	r3, #49168	; 0xc010
c0101fb4:	e7933102 	ldr	r3, [r3, r2, lsl #2]
c0101fb8:	e50b302c 	str	r3, [fp, #-44]	; 0xffffffd4
c0101fbc:	e55b3021 	ldrb	r3, [fp, #-33]	; 0xffffffdf
c0101fc0:	e3530000 	cmp	r3, #0
c0101fc4:	0a000002 	beq	c0101fd4 <arch_pmm_init+0x14c>
c0101fc8:	e55b3021 	ldrb	r3, [fp, #-33]	; 0xffffffdf
c0101fcc:	e3530001 	cmp	r3, #1
c0101fd0:	1a00005b 	bne	c0102144 <arch_pmm_init+0x2bc>
c0101fd4:	e306343c 	movw	r3, #25660	; 0x643c
c0101fd8:	e34c3013 	movt	r3, #49171	; 0xc013
c0101fdc:	e5932000 	ldr	r2, [r3]
c0101fe0:	e51b302c 	ldr	r3, [fp, #-44]	; 0xffffffd4
c0101fe4:	e0822003 	add	r2, r2, r3
c0101fe8:	e306343c 	movw	r3, #25660	; 0x643c
c0101fec:	e34c3013 	movt	r3, #49171	; 0xc013
c0101ff0:	e5832000 	str	r2, [r3]
c0101ff4:	e55b1021 	ldrb	r1, [fp, #-33]	; 0xffffffdf
c0101ff8:	e3062440 	movw	r2, #25664	; 0x6440
c0101ffc:	e34c2013 	movt	r2, #49171	; 0xc013
c0102000:	e1a03001 	mov	r3, r1
c0102004:	e1a03083 	lsl	r3, r3, #1
c0102008:	e0833001 	add	r3, r3, r1
c010200c:	e1a03103 	lsl	r3, r3, #2
c0102010:	e0823003 	add	r3, r2, r3
c0102014:	e2833004 	add	r3, r3, #4
c0102018:	e5933000 	ldr	r3, [r3]
c010201c:	e3530000 	cmp	r3, #0
c0102020:	1a000020 	bne	c01020a8 <arch_pmm_init+0x220>
c0102024:	e55b1021 	ldrb	r1, [fp, #-33]	; 0xffffffdf
c0102028:	e3062440 	movw	r2, #25664	; 0x6440
c010202c:	e34c2013 	movt	r2, #49171	; 0xc013
c0102030:	e1a03001 	mov	r3, r1
c0102034:	e1a03083 	lsl	r3, r3, #1
c0102038:	e0833001 	add	r3, r3, r1
c010203c:	e1a03103 	lsl	r3, r3, #2
c0102040:	e0823003 	add	r3, r2, r3
c0102044:	e2833004 	add	r3, r3, #4
c0102048:	e51b202c 	ldr	r2, [fp, #-44]	; 0xffffffd4
c010204c:	e5832000 	str	r2, [r3]
c0102050:	e55b1021 	ldrb	r1, [fp, #-33]	; 0xffffffdf
c0102054:	e3062440 	movw	r2, #25664	; 0x6440
c0102058:	e34c2013 	movt	r2, #49171	; 0xc013
c010205c:	e1a03001 	mov	r3, r1
c0102060:	e1a03083 	lsl	r3, r3, #1
c0102064:	e0833001 	add	r3, r3, r1
c0102068:	e1a03103 	lsl	r3, r3, #2
c010206c:	e0823003 	add	r3, r2, r3
c0102070:	e51b2028 	ldr	r2, [fp, #-40]	; 0xffffffd8
c0102074:	e5832000 	str	r2, [r3]
c0102078:	e55b1021 	ldrb	r1, [fp, #-33]	; 0xffffffdf
c010207c:	e3062440 	movw	r2, #25664	; 0x6440
c0102080:	e34c2013 	movt	r2, #49171	; 0xc013
c0102084:	e1a03001 	mov	r3, r1
c0102088:	e1a03083 	lsl	r3, r3, #1
c010208c:	e0833001 	add	r3, r3, r1
c0102090:	e1a03103 	lsl	r3, r3, #2
c0102094:	e0823003 	add	r3, r2, r3
c0102098:	e2833008 	add	r3, r3, #8
c010209c:	e3a02000 	mov	r2, #0
c01020a0:	e5832000 	str	r2, [r3]
c01020a4:	ea000026 	b	c0102144 <arch_pmm_init+0x2bc>
c01020a8:	e55b2021 	ldrb	r2, [fp, #-33]	; 0xffffffdf
c01020ac:	e1a03002 	mov	r3, r2
c01020b0:	e1a03083 	lsl	r3, r3, #1
c01020b4:	e0833002 	add	r3, r3, r2
c01020b8:	e1a03103 	lsl	r3, r3, #2
c01020bc:	e3062440 	movw	r2, #25664	; 0x6440
c01020c0:	e34c2013 	movt	r2, #49171	; 0xc013
c01020c4:	e0833002 	add	r3, r3, r2
c01020c8:	e50b3018 	str	r3, [fp, #-24]	; 0xffffffe8
c01020cc:	ea000002 	b	c01020dc <arch_pmm_init+0x254>
c01020d0:	e51b3018 	ldr	r3, [fp, #-24]	; 0xffffffe8
c01020d4:	e5933008 	ldr	r3, [r3, #8]
c01020d8:	e50b3018 	str	r3, [fp, #-24]	; 0xffffffe8
c01020dc:	e51b3018 	ldr	r3, [fp, #-24]	; 0xffffffe8
c01020e0:	e5933008 	ldr	r3, [r3, #8]
c01020e4:	e3530000 	cmp	r3, #0
c01020e8:	1afffff8 	bne	c01020d0 <arch_pmm_init+0x248>
c01020ec:	e3a0000c 	mov	r0, #12
c01020f0:	ebfffd99 	bl	c010175c <kmalloc>
c01020f4:	e1a02000 	mov	r2, r0
c01020f8:	e51b3018 	ldr	r3, [fp, #-24]	; 0xffffffe8
c01020fc:	e5832008 	str	r2, [r3, #8]
c0102100:	e51b3018 	ldr	r3, [fp, #-24]	; 0xffffffe8
c0102104:	e5933008 	ldr	r3, [r3, #8]
c0102108:	e3530000 	cmp	r3, #0
c010210c:	1a000000 	bne	c0102114 <arch_pmm_init+0x28c>
c0102110:	eafffffe 	b	c0102110 <arch_pmm_init+0x288>
c0102114:	e51b3018 	ldr	r3, [fp, #-24]	; 0xffffffe8
c0102118:	e5933008 	ldr	r3, [r3, #8]
c010211c:	e51b202c 	ldr	r2, [fp, #-44]	; 0xffffffd4
c0102120:	e5832004 	str	r2, [r3, #4]
c0102124:	e51b3018 	ldr	r3, [fp, #-24]	; 0xffffffe8
c0102128:	e5933008 	ldr	r3, [r3, #8]
c010212c:	e51b2028 	ldr	r2, [fp, #-40]	; 0xffffffd8
c0102130:	e5832000 	str	r2, [r3]
c0102134:	e51b3018 	ldr	r3, [fp, #-24]	; 0xffffffe8
c0102138:	e5933008 	ldr	r3, [r3, #8]
c010213c:	e3a02000 	mov	r2, #0
c0102140:	e5832008 	str	r2, [r3, #8]
c0102144:	e51b3014 	ldr	r3, [fp, #-20]	; 0xffffffec
c0102148:	e2833001 	add	r3, r3, #1
c010214c:	e50b3014 	str	r3, [fp, #-20]	; 0xffffffec
c0102150:	e3043004 	movw	r3, #16388	; 0x4004
c0102154:	e34c3010 	movt	r3, #49168	; 0xc010
c0102158:	e5933000 	ldr	r3, [r3]
c010215c:	e1a02003 	mov	r2, r3
c0102160:	e51b3014 	ldr	r3, [fp, #-20]	; 0xffffffec
c0102164:	e1530002 	cmp	r3, r2
c0102168:	baffff81 	blt	c0101f74 <arch_pmm_init+0xec>
c010216c:	e3060470 	movw	r0, #25712	; 0x6470
c0102170:	e34c0013 	movt	r0, #49171	; 0xc013
c0102174:	ebfffe6d 	bl	c0101b30 <arch_spinlock_init>
c0102178:	e3a03000 	mov	r3, #0
c010217c:	e50b301c 	str	r3, [fp, #-28]	; 0xffffffe4
c0102180:	ea000008 	b	c01021a8 <arch_pmm_init+0x320>
c0102184:	e3063434 	movw	r3, #25652	; 0x6434
c0102188:	e34c3011 	movt	r3, #49169	; 0xc011
c010218c:	e51b201c 	ldr	r2, [fp, #-28]	; 0xffffffe4
c0102190:	e0833002 	add	r3, r3, r2
c0102194:	e3e02000 	mvn	r2, #0
c0102198:	e5c32000 	strb	r2, [r3]
c010219c:	e51b301c 	ldr	r3, [fp, #-28]	; 0xffffffe4
c01021a0:	e2833001 	add	r3, r3, #1
c01021a4:	e50b301c 	str	r3, [fp, #-28]	; 0xffffffe4
c01021a8:	e51b301c 	ldr	r3, [fp, #-28]	; 0xffffffe4
c01021ac:	e3530802 	cmp	r3, #131072	; 0x20000
c01021b0:	bafffff3 	blt	c0102184 <arch_pmm_init+0x2fc>
c01021b4:	e3063434 	movw	r3, #25652	; 0x6434
c01021b8:	e34c3013 	movt	r3, #49171	; 0xc013
c01021bc:	e3a02000 	mov	r2, #0
c01021c0:	e5832000 	str	r2, [r3]
c01021c4:	e306343c 	movw	r3, #25660	; 0x643c
c01021c8:	e34c3013 	movt	r3, #49171	; 0xc013
c01021cc:	e5932000 	ldr	r2, [r3]
c01021d0:	e3063438 	movw	r3, #25656	; 0x6438
c01021d4:	e34c3013 	movt	r3, #49171	; 0xc013
c01021d8:	e5832000 	str	r2, [r3]
c01021dc:	e3063440 	movw	r3, #25664	; 0x6440
c01021e0:	e34c3013 	movt	r3, #49171	; 0xc013
c01021e4:	e50b3020 	str	r3, [fp, #-32]	; 0xffffffe0
c01021e8:	ea00000e 	b	c0102228 <arch_pmm_init+0x3a0>
c01021ec:	e51b3020 	ldr	r3, [fp, #-32]	; 0xffffffe0
c01021f0:	e5934000 	ldr	r4, [r3]
c01021f4:	e51b3020 	ldr	r3, [fp, #-32]	; 0xffffffe0
c01021f8:	e5933004 	ldr	r3, [r3, #4]
c01021fc:	e3a02a01 	mov	r2, #4096	; 0x1000
c0102200:	e1a01002 	mov	r1, r2
c0102204:	e1a00003 	mov	r0, r3
c0102208:	fa0004c2 	blx	c0103518 <__udivsi3>
c010220c:	e1a03000 	mov	r3, r0
c0102210:	e1a01003 	mov	r1, r3
c0102214:	e1a00004 	mov	r0, r4
c0102218:	eb000112 	bl	c0102668 <arch_pmm_unuse>
c010221c:	e51b3020 	ldr	r3, [fp, #-32]	; 0xffffffe0
c0102220:	e5933008 	ldr	r3, [r3, #8]
c0102224:	e50b3020 	str	r3, [fp, #-32]	; 0xffffffe0
c0102228:	e51b3020 	ldr	r3, [fp, #-32]	; 0xffffffe0
c010222c:	e3530000 	cmp	r3, #0
c0102230:	1affffed 	bne	c01021ec <arch_pmm_init+0x364>
c0102234:	e59f3078 	ldr	r3, [pc, #120]	; c01022b4 <arch_pmm_init+0x42c>
c0102238:	e50b3020 	str	r3, [fp, #-32]	; 0xffffffe0
c010223c:	ea00000e 	b	c010227c <arch_pmm_init+0x3f4>
c0102240:	e51b3020 	ldr	r3, [fp, #-32]	; 0xffffffe0
c0102244:	e5934000 	ldr	r4, [r3]
c0102248:	e51b3020 	ldr	r3, [fp, #-32]	; 0xffffffe0
c010224c:	e5933004 	ldr	r3, [r3, #4]
c0102250:	e3a02a01 	mov	r2, #4096	; 0x1000
c0102254:	e1a01002 	mov	r1, r2
c0102258:	e1a00003 	mov	r0, r3
c010225c:	fa0004ad 	blx	c0103518 <__udivsi3>
c0102260:	e1a03000 	mov	r3, r0
c0102264:	e1a01003 	mov	r1, r3
c0102268:	e1a00004 	mov	r0, r4
c010226c:	eb0000fd 	bl	c0102668 <arch_pmm_unuse>
c0102270:	e51b3020 	ldr	r3, [fp, #-32]	; 0xffffffe0
c0102274:	e5933008 	ldr	r3, [r3, #8]
c0102278:	e50b3020 	str	r3, [fp, #-32]	; 0xffffffe0
c010227c:	e51b3020 	ldr	r3, [fp, #-32]	; 0xffffffe0
c0102280:	e3530000 	cmp	r3, #0
c0102284:	1affffed 	bne	c0102240 <arch_pmm_init+0x3b8>
c0102288:	e3a03a01 	mov	r3, #4096	; 0x1000
c010228c:	e1a01003 	mov	r1, r3
c0102290:	e3a00501 	mov	r0, #4194304	; 0x400000
c0102294:	fa00049f 	blx	c0103518 <__udivsi3>
c0102298:	e1a03000 	mov	r3, r0
c010229c:	e1a01003 	mov	r1, r3
c01022a0:	e3a00601 	mov	r0, #1048576	; 0x100000
c01022a4:	eb000094 	bl	c01024fc <arch_pmm_use>
c01022a8:	e320f000 	nop	{0}
c01022ac:	e24bd008 	sub	sp, fp, #8
c01022b0:	e8bd8810 	pop	{r4, fp, pc}
c01022b4:	c013644c 	.word	0xc013644c

c01022b8 <arch_pmm_alloc>:
c01022b8:	e92d4800 	push	{fp, lr}
c01022bc:	e28db004 	add	fp, sp, #4
c01022c0:	e24dd028 	sub	sp, sp, #40	; 0x28
c01022c4:	e50b0028 	str	r0, [fp, #-40]	; 0xffffffd8
c01022c8:	e1a03001 	mov	r3, r1
c01022cc:	e54b3029 	strb	r3, [fp, #-41]	; 0xffffffd7
c01022d0:	e51b3028 	ldr	r3, [fp, #-40]	; 0xffffffd8
c01022d4:	e3530000 	cmp	r3, #0
c01022d8:	0a000002 	beq	c01022e8 <arch_pmm_alloc+0x30>
c01022dc:	e55b3029 	ldrb	r3, [fp, #-41]	; 0xffffffd7
c01022e0:	e3530003 	cmp	r3, #3
c01022e4:	9a000001 	bls	c01022f0 <arch_pmm_alloc+0x38>
c01022e8:	e3a03000 	mov	r3, #0
c01022ec:	ea000074 	b	c01024c4 <arch_pmm_alloc+0x20c>
c01022f0:	e3a02a01 	mov	r2, #4096	; 0x1000
c01022f4:	e51b3028 	ldr	r3, [fp, #-40]	; 0xffffffd8
c01022f8:	e0030392 	mul	r3, r2, r3
c01022fc:	e50b3020 	str	r3, [fp, #-32]	; 0xffffffe0
c0102300:	e3063434 	movw	r3, #25652	; 0x6434
c0102304:	e34c3013 	movt	r3, #49171	; 0xc013
c0102308:	e5933000 	ldr	r3, [r3]
c010230c:	e51b2020 	ldr	r2, [fp, #-32]	; 0xffffffe0
c0102310:	e1520003 	cmp	r2, r3
c0102314:	9a000001 	bls	c0102320 <arch_pmm_alloc+0x68>
c0102318:	e3a03000 	mov	r3, #0
c010231c:	ea000068 	b	c01024c4 <arch_pmm_alloc+0x20c>
c0102320:	e55b2029 	ldrb	r2, [fp, #-41]	; 0xffffffd7
c0102324:	e1a03002 	mov	r3, r2
c0102328:	e1a03083 	lsl	r3, r3, #1
c010232c:	e0833002 	add	r3, r3, r2
c0102330:	e1a03103 	lsl	r3, r3, #2
c0102334:	e3062440 	movw	r2, #25664	; 0x6440
c0102338:	e34c2013 	movt	r2, #49171	; 0xc013
c010233c:	e0833002 	add	r3, r3, r2
c0102340:	e50b3008 	str	r3, [fp, #-8]
c0102344:	ea00005a 	b	c01024b4 <arch_pmm_alloc+0x1fc>
c0102348:	e51b3008 	ldr	r3, [fp, #-8]
c010234c:	e5933004 	ldr	r3, [r3, #4]
c0102350:	e51b2020 	ldr	r2, [fp, #-32]	; 0xffffffe0
c0102354:	e1520003 	cmp	r2, r3
c0102358:	8a000052 	bhi	c01024a8 <arch_pmm_alloc+0x1f0>
c010235c:	e51b3008 	ldr	r3, [fp, #-8]
c0102360:	e5933000 	ldr	r3, [r3]
c0102364:	e1a02003 	mov	r2, r3
c0102368:	e3a03a01 	mov	r3, #4096	; 0x1000
c010236c:	e1a01003 	mov	r1, r3
c0102370:	e1a00002 	mov	r0, r2
c0102374:	fa000467 	blx	c0103518 <__udivsi3>
c0102378:	e1a03000 	mov	r3, r0
c010237c:	e50b3024 	str	r3, [fp, #-36]	; 0xffffffdc
c0102380:	e51b3024 	ldr	r3, [fp, #-36]	; 0xffffffdc
c0102384:	e1a031a3 	lsr	r3, r3, #3
c0102388:	e50b300c 	str	r3, [fp, #-12]
c010238c:	e51b3024 	ldr	r3, [fp, #-36]	; 0xffffffdc
c0102390:	e2033007 	and	r3, r3, #7
c0102394:	e50b3010 	str	r3, [fp, #-16]
c0102398:	e3a03000 	mov	r3, #0
c010239c:	e50b3014 	str	r3, [fp, #-20]	; 0xffffffec
c01023a0:	e3a03000 	mov	r3, #0
c01023a4:	e50b3018 	str	r3, [fp, #-24]	; 0xffffffe8
c01023a8:	e3a03000 	mov	r3, #0
c01023ac:	e50b301c 	str	r3, [fp, #-28]	; 0xffffffe4
c01023b0:	ea000031 	b	c010247c <arch_pmm_alloc+0x1c4>
c01023b4:	e3063434 	movw	r3, #25652	; 0x6434
c01023b8:	e34c3011 	movt	r3, #49169	; 0xc011
c01023bc:	e51b200c 	ldr	r2, [fp, #-12]
c01023c0:	e0833002 	add	r3, r3, r2
c01023c4:	e5d33000 	ldrb	r3, [r3]
c01023c8:	e1a02003 	mov	r2, r3
c01023cc:	e51b3010 	ldr	r3, [fp, #-16]
c01023d0:	e1a03352 	asr	r3, r2, r3
c01023d4:	e2033001 	and	r3, r3, #1
c01023d8:	e3530000 	cmp	r3, #0
c01023dc:	1a000016 	bne	c010243c <arch_pmm_alloc+0x184>
c01023e0:	e51b3018 	ldr	r3, [fp, #-24]	; 0xffffffe8
c01023e4:	e3530000 	cmp	r3, #0
c01023e8:	1a000006 	bne	c0102408 <arch_pmm_alloc+0x150>
c01023ec:	e51b300c 	ldr	r3, [fp, #-12]
c01023f0:	e1a02183 	lsl	r2, r3, #3
c01023f4:	e51b3010 	ldr	r3, [fp, #-16]
c01023f8:	e0823003 	add	r3, r2, r3
c01023fc:	e3a02a01 	mov	r2, #4096	; 0x1000
c0102400:	e0030392 	mul	r3, r2, r3
c0102404:	e50b3014 	str	r3, [fp, #-20]	; 0xffffffec
c0102408:	e51b3018 	ldr	r3, [fp, #-24]	; 0xffffffe8
c010240c:	e2833001 	add	r3, r3, #1
c0102410:	e50b3018 	str	r3, [fp, #-24]	; 0xffffffe8
c0102414:	e51b2018 	ldr	r2, [fp, #-24]	; 0xffffffe8
c0102418:	e51b3028 	ldr	r3, [fp, #-40]	; 0xffffffd8
c010241c:	e1520003 	cmp	r2, r3
c0102420:	1a000007 	bne	c0102444 <arch_pmm_alloc+0x18c>
c0102424:	e51b3014 	ldr	r3, [fp, #-20]	; 0xffffffec
c0102428:	e51b1028 	ldr	r1, [fp, #-40]	; 0xffffffd8
c010242c:	e1a00003 	mov	r0, r3
c0102430:	eb000031 	bl	c01024fc <arch_pmm_use>
c0102434:	e51b3014 	ldr	r3, [fp, #-20]	; 0xffffffec
c0102438:	ea000021 	b	c01024c4 <arch_pmm_alloc+0x20c>
c010243c:	e3a03000 	mov	r3, #0
c0102440:	e50b3018 	str	r3, [fp, #-24]	; 0xffffffe8
c0102444:	e51b3010 	ldr	r3, [fp, #-16]
c0102448:	e2833001 	add	r3, r3, #1
c010244c:	e50b3010 	str	r3, [fp, #-16]
c0102450:	e51b3010 	ldr	r3, [fp, #-16]
c0102454:	e3530007 	cmp	r3, #7
c0102458:	9a000004 	bls	c0102470 <arch_pmm_alloc+0x1b8>
c010245c:	e3a03000 	mov	r3, #0
c0102460:	e50b3010 	str	r3, [fp, #-16]
c0102464:	e51b300c 	ldr	r3, [fp, #-12]
c0102468:	e2833001 	add	r3, r3, #1
c010246c:	e50b300c 	str	r3, [fp, #-12]
c0102470:	e51b301c 	ldr	r3, [fp, #-28]	; 0xffffffe4
c0102474:	e2833001 	add	r3, r3, #1
c0102478:	e50b301c 	str	r3, [fp, #-28]	; 0xffffffe4
c010247c:	e51b3008 	ldr	r3, [fp, #-8]
c0102480:	e5933004 	ldr	r3, [r3, #4]
c0102484:	e3a02a01 	mov	r2, #4096	; 0x1000
c0102488:	e1a01002 	mov	r1, r2
c010248c:	e1a00003 	mov	r0, r3
c0102490:	fa000420 	blx	c0103518 <__udivsi3>
c0102494:	e1a03000 	mov	r3, r0
c0102498:	e1a02003 	mov	r2, r3
c010249c:	e51b301c 	ldr	r3, [fp, #-28]	; 0xffffffe4
c01024a0:	e1520003 	cmp	r2, r3
c01024a4:	8affffc2 	bhi	c01023b4 <arch_pmm_alloc+0xfc>
c01024a8:	e51b3008 	ldr	r3, [fp, #-8]
c01024ac:	e5933008 	ldr	r3, [r3, #8]
c01024b0:	e50b3008 	str	r3, [fp, #-8]
c01024b4:	e51b3008 	ldr	r3, [fp, #-8]
c01024b8:	e3530000 	cmp	r3, #0
c01024bc:	1affffa1 	bne	c0102348 <arch_pmm_alloc+0x90>
c01024c0:	e3a03000 	mov	r3, #0
c01024c4:	e1a00003 	mov	r0, r3
c01024c8:	e24bd004 	sub	sp, fp, #4
c01024cc:	e8bd8800 	pop	{fp, pc}

c01024d0 <arch_pmm_free>:
c01024d0:	e92d4800 	push	{fp, lr}
c01024d4:	e28db004 	add	fp, sp, #4
c01024d8:	e24dd008 	sub	sp, sp, #8
c01024dc:	e50b0008 	str	r0, [fp, #-8]
c01024e0:	e50b100c 	str	r1, [fp, #-12]
c01024e4:	e51b100c 	ldr	r1, [fp, #-12]
c01024e8:	e51b0008 	ldr	r0, [fp, #-8]
c01024ec:	eb00005d 	bl	c0102668 <arch_pmm_unuse>
c01024f0:	e320f000 	nop	{0}
c01024f4:	e24bd004 	sub	sp, fp, #4
c01024f8:	e8bd8800 	pop	{fp, pc}

c01024fc <arch_pmm_use>:
c01024fc:	e92d4800 	push	{fp, lr}
c0102500:	e28db004 	add	fp, sp, #4
c0102504:	e24dd018 	sub	sp, sp, #24
c0102508:	e50b0018 	str	r0, [fp, #-24]	; 0xffffffe8
c010250c:	e50b101c 	str	r1, [fp, #-28]	; 0xffffffe4
c0102510:	e51b3018 	ldr	r3, [fp, #-24]	; 0xffffffe8
c0102514:	e3a02a01 	mov	r2, #4096	; 0x1000
c0102518:	e1a01002 	mov	r1, r2
c010251c:	e1a00003 	mov	r0, r3
c0102520:	fa0003fc 	blx	c0103518 <__udivsi3>
c0102524:	e1a03000 	mov	r3, r0
c0102528:	e50b3014 	str	r3, [fp, #-20]	; 0xffffffec
c010252c:	e51b3014 	ldr	r3, [fp, #-20]	; 0xffffffec
c0102530:	e1a031a3 	lsr	r3, r3, #3
c0102534:	e50b3008 	str	r3, [fp, #-8]
c0102538:	e51b3014 	ldr	r3, [fp, #-20]	; 0xffffffec
c010253c:	e2033007 	and	r3, r3, #7
c0102540:	e50b300c 	str	r3, [fp, #-12]
c0102544:	e51b301c 	ldr	r3, [fp, #-28]	; 0xffffffe4
c0102548:	e3530000 	cmp	r3, #0
c010254c:	0a000042 	beq	c010265c <arch_pmm_use+0x160>
c0102550:	e3060470 	movw	r0, #25712	; 0x6470
c0102554:	e34c0013 	movt	r0, #49171	; 0xc013
c0102558:	ebfffd75 	bl	c0101b34 <arch_spinlock_lock>
c010255c:	e3a02a01 	mov	r2, #4096	; 0x1000
c0102560:	e51b301c 	ldr	r3, [fp, #-28]	; 0xffffffe4
c0102564:	e0020293 	mul	r2, r3, r2
c0102568:	e3063438 	movw	r3, #25656	; 0x6438
c010256c:	e34c3013 	movt	r3, #49171	; 0xc013
c0102570:	e5933000 	ldr	r3, [r3]
c0102574:	e0822003 	add	r2, r2, r3
c0102578:	e3063438 	movw	r3, #25656	; 0x6438
c010257c:	e34c3013 	movt	r3, #49171	; 0xc013
c0102580:	e5832000 	str	r2, [r3]
c0102584:	e3063434 	movw	r3, #25652	; 0x6434
c0102588:	e34c3013 	movt	r3, #49171	; 0xc013
c010258c:	e5932000 	ldr	r2, [r3]
c0102590:	e3a01a01 	mov	r1, #4096	; 0x1000
c0102594:	e51b301c 	ldr	r3, [fp, #-28]	; 0xffffffe4
c0102598:	e0030193 	mul	r3, r3, r1
c010259c:	e0422003 	sub	r2, r2, r3
c01025a0:	e3063434 	movw	r3, #25652	; 0x6434
c01025a4:	e34c3013 	movt	r3, #49171	; 0xc013
c01025a8:	e5832000 	str	r2, [r3]
c01025ac:	e3a03000 	mov	r3, #0
c01025b0:	e50b3010 	str	r3, [fp, #-16]
c01025b4:	ea000020 	b	c010263c <arch_pmm_use+0x140>
c01025b8:	e3063434 	movw	r3, #25652	; 0x6434
c01025bc:	e34c3011 	movt	r3, #49169	; 0xc011
c01025c0:	e51b2008 	ldr	r2, [fp, #-8]
c01025c4:	e0833002 	add	r3, r3, r2
c01025c8:	e5d33000 	ldrb	r3, [r3]
c01025cc:	e6af2073 	sxtb	r2, r3
c01025d0:	e3a01001 	mov	r1, #1
c01025d4:	e51b300c 	ldr	r3, [fp, #-12]
c01025d8:	e1a03311 	lsl	r3, r1, r3
c01025dc:	e6af3073 	sxtb	r3, r3
c01025e0:	e1823003 	orr	r3, r2, r3
c01025e4:	e6af3073 	sxtb	r3, r3
c01025e8:	e6ef1073 	uxtb	r1, r3
c01025ec:	e3063434 	movw	r3, #25652	; 0x6434
c01025f0:	e34c3011 	movt	r3, #49169	; 0xc011
c01025f4:	e51b2008 	ldr	r2, [fp, #-8]
c01025f8:	e0833002 	add	r3, r3, r2
c01025fc:	e1a02001 	mov	r2, r1
c0102600:	e5c32000 	strb	r2, [r3]
c0102604:	e51b300c 	ldr	r3, [fp, #-12]
c0102608:	e2833001 	add	r3, r3, #1
c010260c:	e50b300c 	str	r3, [fp, #-12]
c0102610:	e51b300c 	ldr	r3, [fp, #-12]
c0102614:	e3530007 	cmp	r3, #7
c0102618:	9a000004 	bls	c0102630 <arch_pmm_use+0x134>
c010261c:	e3a03000 	mov	r3, #0
c0102620:	e50b300c 	str	r3, [fp, #-12]
c0102624:	e51b3008 	ldr	r3, [fp, #-8]
c0102628:	e2833001 	add	r3, r3, #1
c010262c:	e50b3008 	str	r3, [fp, #-8]
c0102630:	e51b3010 	ldr	r3, [fp, #-16]
c0102634:	e2833001 	add	r3, r3, #1
c0102638:	e50b3010 	str	r3, [fp, #-16]
c010263c:	e51b3010 	ldr	r3, [fp, #-16]
c0102640:	e51b201c 	ldr	r2, [fp, #-28]	; 0xffffffe4
c0102644:	e1520003 	cmp	r2, r3
c0102648:	8affffda 	bhi	c01025b8 <arch_pmm_use+0xbc>
c010264c:	e3060470 	movw	r0, #25712	; 0x6470
c0102650:	e34c0013 	movt	r0, #49171	; 0xc013
c0102654:	ebfffd37 	bl	c0101b38 <arch_spinlock_unlock>
c0102658:	ea000000 	b	c0102660 <arch_pmm_use+0x164>
c010265c:	e320f000 	nop	{0}
c0102660:	e24bd004 	sub	sp, fp, #4
c0102664:	e8bd8800 	pop	{fp, pc}

c0102668 <arch_pmm_unuse>:
c0102668:	e92d4800 	push	{fp, lr}
c010266c:	e28db004 	add	fp, sp, #4
c0102670:	e24dd018 	sub	sp, sp, #24
c0102674:	e50b0018 	str	r0, [fp, #-24]	; 0xffffffe8
c0102678:	e50b101c 	str	r1, [fp, #-28]	; 0xffffffe4
c010267c:	e51b3018 	ldr	r3, [fp, #-24]	; 0xffffffe8
c0102680:	e3a02a01 	mov	r2, #4096	; 0x1000
c0102684:	e1a01002 	mov	r1, r2
c0102688:	e1a00003 	mov	r0, r3
c010268c:	fa0003a1 	blx	c0103518 <__udivsi3>
c0102690:	e1a03000 	mov	r3, r0
c0102694:	e50b3014 	str	r3, [fp, #-20]	; 0xffffffec
c0102698:	e51b3014 	ldr	r3, [fp, #-20]	; 0xffffffec
c010269c:	e1a031a3 	lsr	r3, r3, #3
c01026a0:	e50b3008 	str	r3, [fp, #-8]
c01026a4:	e51b3014 	ldr	r3, [fp, #-20]	; 0xffffffec
c01026a8:	e2033007 	and	r3, r3, #7
c01026ac:	e50b300c 	str	r3, [fp, #-12]
c01026b0:	e51b301c 	ldr	r3, [fp, #-28]	; 0xffffffe4
c01026b4:	e3530000 	cmp	r3, #0
c01026b8:	0a000044 	beq	c01027d0 <arch_pmm_unuse+0x168>
c01026bc:	e3060470 	movw	r0, #25712	; 0x6470
c01026c0:	e34c0013 	movt	r0, #49171	; 0xc013
c01026c4:	ebfffd1a 	bl	c0101b34 <arch_spinlock_lock>
c01026c8:	e3063438 	movw	r3, #25656	; 0x6438
c01026cc:	e34c3013 	movt	r3, #49171	; 0xc013
c01026d0:	e5932000 	ldr	r2, [r3]
c01026d4:	e3a01a01 	mov	r1, #4096	; 0x1000
c01026d8:	e51b301c 	ldr	r3, [fp, #-28]	; 0xffffffe4
c01026dc:	e0030193 	mul	r3, r3, r1
c01026e0:	e0422003 	sub	r2, r2, r3
c01026e4:	e3063438 	movw	r3, #25656	; 0x6438
c01026e8:	e34c3013 	movt	r3, #49171	; 0xc013
c01026ec:	e5832000 	str	r2, [r3]
c01026f0:	e3a02a01 	mov	r2, #4096	; 0x1000
c01026f4:	e51b301c 	ldr	r3, [fp, #-28]	; 0xffffffe4
c01026f8:	e0020293 	mul	r2, r3, r2
c01026fc:	e3063434 	movw	r3, #25652	; 0x6434
c0102700:	e34c3013 	movt	r3, #49171	; 0xc013
c0102704:	e5933000 	ldr	r3, [r3]
c0102708:	e0822003 	add	r2, r2, r3
c010270c:	e3063434 	movw	r3, #25652	; 0x6434
c0102710:	e34c3013 	movt	r3, #49171	; 0xc013
c0102714:	e5832000 	str	r2, [r3]
c0102718:	e3a03000 	mov	r3, #0
c010271c:	e50b3010 	str	r3, [fp, #-16]
c0102720:	ea000022 	b	c01027b0 <arch_pmm_unuse+0x148>
c0102724:	e3063434 	movw	r3, #25652	; 0x6434
c0102728:	e34c3011 	movt	r3, #49169	; 0xc011
c010272c:	e51b2008 	ldr	r2, [fp, #-8]
c0102730:	e0833002 	add	r3, r3, r2
c0102734:	e5d33000 	ldrb	r3, [r3]
c0102738:	e6af2073 	sxtb	r2, r3
c010273c:	e3a01001 	mov	r1, #1
c0102740:	e51b300c 	ldr	r3, [fp, #-12]
c0102744:	e1a03311 	lsl	r3, r1, r3
c0102748:	e6af3073 	sxtb	r3, r3
c010274c:	e1e03003 	mvn	r3, r3
c0102750:	e6af3073 	sxtb	r3, r3
c0102754:	e0033002 	and	r3, r3, r2
c0102758:	e6af3073 	sxtb	r3, r3
c010275c:	e6ef1073 	uxtb	r1, r3
c0102760:	e3063434 	movw	r3, #25652	; 0x6434
c0102764:	e34c3011 	movt	r3, #49169	; 0xc011
c0102768:	e51b2008 	ldr	r2, [fp, #-8]
c010276c:	e0833002 	add	r3, r3, r2
c0102770:	e1a02001 	mov	r2, r1
c0102774:	e5c32000 	strb	r2, [r3]
c0102778:	e51b300c 	ldr	r3, [fp, #-12]
c010277c:	e2833001 	add	r3, r3, #1
c0102780:	e50b300c 	str	r3, [fp, #-12]
c0102784:	e51b300c 	ldr	r3, [fp, #-12]
c0102788:	e3530007 	cmp	r3, #7
c010278c:	9a000004 	bls	c01027a4 <arch_pmm_unuse+0x13c>
c0102790:	e3a03000 	mov	r3, #0
c0102794:	e50b300c 	str	r3, [fp, #-12]
c0102798:	e51b3008 	ldr	r3, [fp, #-8]
c010279c:	e2833001 	add	r3, r3, #1
c01027a0:	e50b3008 	str	r3, [fp, #-8]
c01027a4:	e51b3010 	ldr	r3, [fp, #-16]
c01027a8:	e2833001 	add	r3, r3, #1
c01027ac:	e50b3010 	str	r3, [fp, #-16]
c01027b0:	e51b3010 	ldr	r3, [fp, #-16]
c01027b4:	e51b201c 	ldr	r2, [fp, #-28]	; 0xffffffe4
c01027b8:	e1520003 	cmp	r2, r3
c01027bc:	8affffd8 	bhi	c0102724 <arch_pmm_unuse+0xbc>
c01027c0:	e3060470 	movw	r0, #25712	; 0x6470
c01027c4:	e34c0013 	movt	r0, #49171	; 0xc013
c01027c8:	ebfffcda 	bl	c0101b38 <arch_spinlock_unlock>
c01027cc:	ea000000 	b	c01027d4 <arch_pmm_unuse+0x16c>
c01027d0:	e320f000 	nop	{0}
c01027d4:	e24bd004 	sub	sp, fp, #4
c01027d8:	e8bd8800 	pop	{fp, pc}

c01027dc <arch_pmm_get_available>:
c01027dc:	e52db004 	push	{fp}		; (str fp, [sp, #-4]!)
c01027e0:	e28db000 	add	fp, sp, #0
c01027e4:	e306343c 	movw	r3, #25660	; 0x643c
c01027e8:	e34c3013 	movt	r3, #49171	; 0xc013
c01027ec:	e5933000 	ldr	r3, [r3]
c01027f0:	e1a00003 	mov	r0, r3
c01027f4:	e28bd000 	add	sp, fp, #0
c01027f8:	e49db004 	pop	{fp}		; (ldr fp, [sp], #4)
c01027fc:	e12fff1e 	bx	lr

c0102800 <arch_pmm_get_free>:
c0102800:	e52db004 	push	{fp}		; (str fp, [sp, #-4]!)
c0102804:	e28db000 	add	fp, sp, #0
c0102808:	e3063434 	movw	r3, #25652	; 0x6434
c010280c:	e34c3013 	movt	r3, #49171	; 0xc013
c0102810:	e5933000 	ldr	r3, [r3]
c0102814:	e1a00003 	mov	r0, r3
c0102818:	e28bd000 	add	sp, fp, #0
c010281c:	e49db004 	pop	{fp}		; (ldr fp, [sp], #4)
c0102820:	e12fff1e 	bx	lr

c0102824 <arch_pmm_get_used>:
c0102824:	e52db004 	push	{fp}		; (str fp, [sp, #-4]!)
c0102828:	e28db000 	add	fp, sp, #0
c010282c:	e3063438 	movw	r3, #25656	; 0x6438
c0102830:	e34c3013 	movt	r3, #49171	; 0xc013
c0102834:	e5933000 	ldr	r3, [r3]
c0102838:	e1a00003 	mov	r0, r3
c010283c:	e28bd000 	add	sp, fp, #0
c0102840:	e49db004 	pop	{fp}		; (ldr fp, [sp], #4)
c0102844:	e12fff1e 	bx	lr

c0102848 <arch_vas_init>:
c0102848:	e92d4800 	push	{fp, lr}
c010284c:	e28db004 	add	fp, sp, #4
c0102850:	e24dd010 	sub	sp, sp, #16
c0102854:	e3043000 	movw	r3, #16384	; 0x4000
c0102858:	e34c3010 	movt	r3, #49168	; 0xc010
c010285c:	e5932000 	ldr	r2, [r3]
c0102860:	e3063474 	movw	r3, #25716	; 0x6474
c0102864:	e34c3013 	movt	r3, #49171	; 0xc013
c0102868:	e5832000 	str	r2, [r3]
c010286c:	e3a01001 	mov	r1, #1
c0102870:	e3a00001 	mov	r0, #1
c0102874:	ebfffe8f 	bl	c01022b8 <arch_pmm_alloc>
c0102878:	e50b0010 	str	r0, [fp, #-16]
c010287c:	e51b3010 	ldr	r3, [fp, #-16]
c0102880:	e1a03a23 	lsr	r3, r3, #20
c0102884:	e1a03a03 	lsl	r3, r3, #20
c0102888:	e3062474 	movw	r2, #25716	; 0x6474
c010288c:	e34c2013 	movt	r2, #49171	; 0xc013
c0102890:	e5922000 	ldr	r2, [r2]
c0102894:	e3833b01 	orr	r3, r3, #1024	; 0x400
c0102898:	e3833002 	orr	r3, r3, #2
c010289c:	e5823000 	str	r3, [r2]
c01028a0:	e51b3010 	ldr	r3, [fp, #-16]
c01028a4:	e7f33053 	ubfx	r3, r3, #0, #20
c01028a8:	e50b3014 	str	r3, [fp, #-20]	; 0xffffffec
c01028ac:	e51b3010 	ldr	r3, [fp, #-16]
c01028b0:	e3c33eff 	bic	r3, r3, #4080	; 0xff0
c01028b4:	e3c3300f 	bic	r3, r3, #15
c01028b8:	e3832013 	orr	r2, r3, #19
c01028bc:	e51b3014 	ldr	r3, [fp, #-20]	; 0xffffffec
c01028c0:	e5832000 	str	r2, [r3]
c01028c4:	e3a03000 	mov	r3, #0
c01028c8:	e50b3008 	str	r3, [fp, #-8]
c01028cc:	e3a030fc 	mov	r3, #252	; 0xfc
c01028d0:	e50b300c 	str	r3, [fp, #-12]
c01028d4:	ea000015 	b	c0102930 <arch_vas_init+0xe8>
c01028d8:	e51b3008 	ldr	r3, [fp, #-8]
c01028dc:	e1a03603 	lsl	r3, r3, #12
c01028e0:	e1a02003 	mov	r2, r3
c01028e4:	e3043000 	movw	r3, #16384	; 0x4000
c01028e8:	e34c3010 	movt	r3, #49168	; 0xc010
c01028ec:	e5933000 	ldr	r3, [r3]
c01028f0:	e0823003 	add	r3, r2, r3
c01028f4:	e2833101 	add	r3, r3, #1073741824	; 0x40000000
c01028f8:	e3c33eff 	bic	r3, r3, #4080	; 0xff0
c01028fc:	e3c3300f 	bic	r3, r3, #15
c0102900:	e51b200c 	ldr	r2, [fp, #-12]
c0102904:	e1a02102 	lsl	r2, r2, #2
c0102908:	e51b1014 	ldr	r1, [fp, #-20]	; 0xffffffec
c010290c:	e0812002 	add	r2, r1, r2
c0102910:	e3833013 	orr	r3, r3, #19
c0102914:	e5823000 	str	r3, [r2]
c0102918:	e51b3008 	ldr	r3, [fp, #-8]
c010291c:	e2833001 	add	r3, r3, #1
c0102920:	e50b3008 	str	r3, [fp, #-8]
c0102924:	e51b300c 	ldr	r3, [fp, #-12]
c0102928:	e2833001 	add	r3, r3, #1
c010292c:	e50b300c 	str	r3, [fp, #-12]
c0102930:	e51b300c 	ldr	r3, [fp, #-12]
c0102934:	e35300ff 	cmp	r3, #255	; 0xff
c0102938:	daffffe6 	ble	c01028d8 <arch_vas_init+0x90>
c010293c:	e51b3010 	ldr	r3, [fp, #-16]
c0102940:	e3c32fff 	bic	r2, r3, #1020	; 0x3fc
c0102944:	e3c22003 	bic	r2, r2, #3
c0102948:	e3063474 	movw	r3, #25716	; 0x6474
c010294c:	e34c3013 	movt	r3, #49171	; 0xc013
c0102950:	e5933000 	ldr	r3, [r3]
c0102954:	e2833dff 	add	r3, r3, #16320	; 0x3fc0
c0102958:	e283303c 	add	r3, r3, #60	; 0x3c
c010295c:	e3822001 	orr	r2, r2, #1
c0102960:	e5832000 	str	r2, [r3]
c0102964:	e3063474 	movw	r3, #25716	; 0x6474
c0102968:	e34c3013 	movt	r3, #49171	; 0xc013
c010296c:	e5933000 	ldr	r3, [r3]
c0102970:	e3a02000 	mov	r2, #0
c0102974:	e5832000 	str	r2, [r3]
c0102978:	e3062474 	movw	r2, #25716	; 0x6474
c010297c:	e34c2013 	movt	r2, #49171	; 0xc013
c0102980:	e3a03903 	mov	r3, #49152	; 0xc000
c0102984:	e34f3fff 	movt	r3, #65535	; 0xffff
c0102988:	e5823000 	str	r3, [r2]
c010298c:	e3062478 	movw	r2, #25720	; 0x6478
c0102990:	e34c2013 	movt	r2, #49171	; 0xc013
c0102994:	e3a03000 	mov	r3, #0
c0102998:	e34f3ff0 	movt	r3, #65520	; 0xfff0
c010299c:	e5823000 	str	r3, [r2]
c01029a0:	ee080f13 	mcr	15, 0, r0, cr8, cr3, {0}
c01029a4:	e320f000 	nop	{0}
c01029a8:	e24bd004 	sub	sp, fp, #4
c01029ac:	e8bd8800 	pop	{fp, pc}

c01029b0 <arch_vas_create_pt>:
c01029b0:	e92d4800 	push	{fp, lr}
c01029b4:	e28db004 	add	fp, sp, #4
c01029b8:	e3a01001 	mov	r1, #1
c01029bc:	e3a00001 	mov	r0, #1
c01029c0:	ebfffe3c 	bl	c01022b8 <arch_pmm_alloc>
c01029c4:	e1a03000 	mov	r3, r0
c01029c8:	e1a00003 	mov	r0, r3
c01029cc:	e8bd8800 	pop	{fp, pc}

c01029d0 <arch_vas_map>:
c01029d0:	e92d4800 	push	{fp, lr}
c01029d4:	e28db004 	add	fp, sp, #4
c01029d8:	e24dd030 	sub	sp, sp, #48	; 0x30
c01029dc:	e50b0028 	str	r0, [fp, #-40]	; 0xffffffd8
c01029e0:	e50b102c 	str	r1, [fp, #-44]	; 0xffffffd4
c01029e4:	e50b2030 	str	r2, [fp, #-48]	; 0xffffffd0
c01029e8:	e51b302c 	ldr	r3, [fp, #-44]	; 0xffffffd4
c01029ec:	e1a03623 	lsr	r3, r3, #12
c01029f0:	e6ef3073 	uxtb	r3, r3
c01029f4:	e50b300c 	str	r3, [fp, #-12]
c01029f8:	e51b302c 	ldr	r3, [fp, #-44]	; 0xffffffd4
c01029fc:	e1a03a23 	lsr	r3, r3, #20
c0102a00:	e50b3010 	str	r3, [fp, #-16]
c0102a04:	e3063474 	movw	r3, #25716	; 0x6474
c0102a08:	e34c3013 	movt	r3, #49171	; 0xc013
c0102a0c:	e5932000 	ldr	r2, [r3]
c0102a10:	e51b3010 	ldr	r3, [fp, #-16]
c0102a14:	e1a03103 	lsl	r3, r3, #2
c0102a18:	e0823003 	add	r3, r2, r3
c0102a1c:	e5933000 	ldr	r3, [r3]
c0102a20:	e50b3014 	str	r3, [fp, #-20]	; 0xffffffec
c0102a24:	e51b3014 	ldr	r3, [fp, #-20]	; 0xffffffec
c0102a28:	e2033002 	and	r3, r3, #2
c0102a2c:	e3530000 	cmp	r3, #0
c0102a30:	0a000001 	beq	c0102a3c <arch_vas_map+0x6c>
c0102a34:	e3a03001 	mov	r3, #1
c0102a38:	ea0000a4 	b	c0102cd0 <arch_vas_map+0x300>
c0102a3c:	e51b3014 	ldr	r3, [fp, #-20]	; 0xffffffec
c0102a40:	e3c33fff 	bic	r3, r3, #1020	; 0x3fc
c0102a44:	e3c33003 	bic	r3, r3, #3
c0102a48:	e50b3018 	str	r3, [fp, #-24]	; 0xffffffe8
c0102a4c:	e51b3014 	ldr	r3, [fp, #-20]	; 0xffffffec
c0102a50:	e2033003 	and	r3, r3, #3
c0102a54:	e3530000 	cmp	r3, #0
c0102a58:	1a00000e 	bne	c0102a98 <arch_vas_map+0xc8>
c0102a5c:	ebffffd3 	bl	c01029b0 <arch_vas_create_pt>
c0102a60:	e50b0018 	str	r0, [fp, #-24]	; 0xffffffe8
c0102a64:	e51b3018 	ldr	r3, [fp, #-24]	; 0xffffffe8
c0102a68:	e3c33fff 	bic	r3, r3, #1020	; 0x3fc
c0102a6c:	e3c33003 	bic	r3, r3, #3
c0102a70:	e3833001 	orr	r3, r3, #1
c0102a74:	e50b3014 	str	r3, [fp, #-20]	; 0xffffffec
c0102a78:	e3063474 	movw	r3, #25716	; 0x6474
c0102a7c:	e34c3013 	movt	r3, #49171	; 0xc013
c0102a80:	e5932000 	ldr	r2, [r3]
c0102a84:	e51b3010 	ldr	r3, [fp, #-16]
c0102a88:	e1a03103 	lsl	r3, r3, #2
c0102a8c:	e0823003 	add	r3, r2, r3
c0102a90:	e51b2014 	ldr	r2, [fp, #-20]	; 0xffffffec
c0102a94:	e5832000 	str	r2, [r3]
c0102a98:	e3a03002 	mov	r3, #2
c0102a9c:	e50b3008 	str	r3, [fp, #-8]
c0102aa0:	e51b3030 	ldr	r3, [fp, #-48]	; 0xffffffd0
c0102aa4:	e203306c 	and	r3, r3, #108	; 0x6c
c0102aa8:	e353006c 	cmp	r3, #108	; 0x6c
c0102aac:	0a00004d 	beq	c0102be8 <arch_vas_map+0x218>
c0102ab0:	e353006c 	cmp	r3, #108	; 0x6c
c0102ab4:	8a00004f 	bhi	c0102bf8 <arch_vas_map+0x228>
c0102ab8:	e3530068 	cmp	r3, #104	; 0x68
c0102abc:	0a000049 	beq	c0102be8 <arch_vas_map+0x218>
c0102ac0:	e3530068 	cmp	r3, #104	; 0x68
c0102ac4:	8a00004b 	bhi	c0102bf8 <arch_vas_map+0x228>
c0102ac8:	e353004c 	cmp	r3, #76	; 0x4c
c0102acc:	0a000045 	beq	c0102be8 <arch_vas_map+0x218>
c0102ad0:	e353004c 	cmp	r3, #76	; 0x4c
c0102ad4:	8a000047 	bhi	c0102bf8 <arch_vas_map+0x228>
c0102ad8:	e353002c 	cmp	r3, #44	; 0x2c
c0102adc:	8a00002e 	bhi	c0102b9c <arch_vas_map+0x1cc>
c0102ae0:	e3530004 	cmp	r3, #4
c0102ae4:	3a000043 	bcc	c0102bf8 <arch_vas_map+0x228>
c0102ae8:	e2433004 	sub	r3, r3, #4
c0102aec:	e3530028 	cmp	r3, #40	; 0x28
c0102af0:	979ff103 	ldrls	pc, [pc, r3, lsl #2]
c0102af4:	ea00003f 	b	c0102bf8 <arch_vas_map+0x228>
c0102af8:	c0102ba8 	.word	0xc0102ba8
c0102afc:	c0102bf8 	.word	0xc0102bf8
c0102b00:	c0102bf8 	.word	0xc0102bf8
c0102b04:	c0102bf8 	.word	0xc0102bf8
c0102b08:	c0102bc8 	.word	0xc0102bc8
c0102b0c:	c0102bf8 	.word	0xc0102bf8
c0102b10:	c0102bf8 	.word	0xc0102bf8
c0102b14:	c0102bf8 	.word	0xc0102bf8
c0102b18:	c0102bc8 	.word	0xc0102bc8
c0102b1c:	c0102bf8 	.word	0xc0102bf8
c0102b20:	c0102bf8 	.word	0xc0102bf8
c0102b24:	c0102bf8 	.word	0xc0102bf8
c0102b28:	c0102bf8 	.word	0xc0102bf8
c0102b2c:	c0102bf8 	.word	0xc0102bf8
c0102b30:	c0102bf8 	.word	0xc0102bf8
c0102b34:	c0102bf8 	.word	0xc0102bf8
c0102b38:	c0102bf8 	.word	0xc0102bf8
c0102b3c:	c0102bf8 	.word	0xc0102bf8
c0102b40:	c0102bf8 	.word	0xc0102bf8
c0102b44:	c0102bf8 	.word	0xc0102bf8
c0102b48:	c0102bf8 	.word	0xc0102bf8
c0102b4c:	c0102bf8 	.word	0xc0102bf8
c0102b50:	c0102bf8 	.word	0xc0102bf8
c0102b54:	c0102bf8 	.word	0xc0102bf8
c0102b58:	c0102bf8 	.word	0xc0102bf8
c0102b5c:	c0102bf8 	.word	0xc0102bf8
c0102b60:	c0102bf8 	.word	0xc0102bf8
c0102b64:	c0102bf8 	.word	0xc0102bf8
c0102b68:	c0102bf8 	.word	0xc0102bf8
c0102b6c:	c0102bf8 	.word	0xc0102bf8
c0102b70:	c0102bf8 	.word	0xc0102bf8
c0102b74:	c0102bf8 	.word	0xc0102bf8
c0102b78:	c0102bb8 	.word	0xc0102bb8
c0102b7c:	c0102bf8 	.word	0xc0102bf8
c0102b80:	c0102bf8 	.word	0xc0102bf8
c0102b84:	c0102bf8 	.word	0xc0102bf8
c0102b88:	c0102bd8 	.word	0xc0102bd8
c0102b8c:	c0102bf8 	.word	0xc0102bf8
c0102b90:	c0102bf8 	.word	0xc0102bf8
c0102b94:	c0102bf8 	.word	0xc0102bf8
c0102b98:	c0102bd8 	.word	0xc0102bd8
c0102b9c:	e3530048 	cmp	r3, #72	; 0x48
c0102ba0:	0a000010 	beq	c0102be8 <arch_vas_map+0x218>
c0102ba4:	ea000013 	b	c0102bf8 <arch_vas_map+0x228>
c0102ba8:	e51b3008 	ldr	r3, [fp, #-8]
c0102bac:	e3833e21 	orr	r3, r3, #528	; 0x210
c0102bb0:	e50b3008 	str	r3, [fp, #-8]
c0102bb4:	ea000011 	b	c0102c00 <arch_vas_map+0x230>
c0102bb8:	e51b3008 	ldr	r3, [fp, #-8]
c0102bbc:	e3833e22 	orr	r3, r3, #544	; 0x220
c0102bc0:	e50b3008 	str	r3, [fp, #-8]
c0102bc4:	ea00000d 	b	c0102c00 <arch_vas_map+0x230>
c0102bc8:	e51b3008 	ldr	r3, [fp, #-8]
c0102bcc:	e3833010 	orr	r3, r3, #16
c0102bd0:	e50b3008 	str	r3, [fp, #-8]
c0102bd4:	ea000009 	b	c0102c00 <arch_vas_map+0x230>
c0102bd8:	e51b3008 	ldr	r3, [fp, #-8]
c0102bdc:	e3833020 	orr	r3, r3, #32
c0102be0:	e50b3008 	str	r3, [fp, #-8]
c0102be4:	ea000005 	b	c0102c00 <arch_vas_map+0x230>
c0102be8:	e51b3008 	ldr	r3, [fp, #-8]
c0102bec:	e3833030 	orr	r3, r3, #48	; 0x30
c0102bf0:	e50b3008 	str	r3, [fp, #-8]
c0102bf4:	ea000001 	b	c0102c00 <arch_vas_map+0x230>
c0102bf8:	e3a03001 	mov	r3, #1
c0102bfc:	ea000033 	b	c0102cd0 <arch_vas_map+0x300>
c0102c00:	e51b3030 	ldr	r3, [fp, #-48]	; 0xffffffd0
c0102c04:	e2033010 	and	r3, r3, #16
c0102c08:	e3530000 	cmp	r3, #0
c0102c0c:	1a000006 	bne	c0102c2c <arch_vas_map+0x25c>
c0102c10:	e51b3030 	ldr	r3, [fp, #-48]	; 0xffffffd0
c0102c14:	e2033080 	and	r3, r3, #128	; 0x80
c0102c18:	e3530000 	cmp	r3, #0
c0102c1c:	1a000002 	bne	c0102c2c <arch_vas_map+0x25c>
c0102c20:	e51b3008 	ldr	r3, [fp, #-8]
c0102c24:	e3833001 	orr	r3, r3, #1
c0102c28:	e50b3008 	str	r3, [fp, #-8]
c0102c2c:	e51b3028 	ldr	r3, [fp, #-40]	; 0xffffffd8
c0102c30:	e3c33eff 	bic	r3, r3, #4080	; 0xff0
c0102c34:	e3c3300f 	bic	r3, r3, #15
c0102c38:	e51b2008 	ldr	r2, [fp, #-8]
c0102c3c:	e1823003 	orr	r3, r2, r3
c0102c40:	e50b3008 	str	r3, [fp, #-8]
c0102c44:	e3063474 	movw	r3, #25716	; 0x6474
c0102c48:	e34c3013 	movt	r3, #49171	; 0xc013
c0102c4c:	e5932000 	ldr	r2, [r3]
c0102c50:	e51b3010 	ldr	r3, [fp, #-16]
c0102c54:	e1a03103 	lsl	r3, r3, #2
c0102c58:	e0823003 	add	r3, r2, r3
c0102c5c:	e5933000 	ldr	r3, [r3]
c0102c60:	e3c33fff 	bic	r3, r3, #1020	; 0x3fc
c0102c64:	e3c33003 	bic	r3, r3, #3
c0102c68:	e50b301c 	str	r3, [fp, #-28]	; 0xffffffe4
c0102c6c:	e3063478 	movw	r3, #25720	; 0x6478
c0102c70:	e34c3013 	movt	r3, #49171	; 0xc013
c0102c74:	e5933000 	ldr	r3, [r3]
c0102c78:	e2833004 	add	r3, r3, #4
c0102c7c:	e51b201c 	ldr	r2, [fp, #-28]	; 0xffffffe4
c0102c80:	e3822013 	orr	r2, r2, #19
c0102c84:	e5832000 	str	r2, [r3]
c0102c88:	ee080f13 	mcr	15, 0, r0, cr8, cr3, {0}
c0102c8c:	e3a03a01 	mov	r3, #4096	; 0x1000
c0102c90:	e34f3ff0 	movt	r3, #65520	; 0xfff0
c0102c94:	e50b3020 	str	r3, [fp, #-32]	; 0xffffffe0
c0102c98:	e51b300c 	ldr	r3, [fp, #-12]
c0102c9c:	e1a03103 	lsl	r3, r3, #2
c0102ca0:	e51b2020 	ldr	r2, [fp, #-32]	; 0xffffffe0
c0102ca4:	e0823003 	add	r3, r2, r3
c0102ca8:	e51b2008 	ldr	r2, [fp, #-8]
c0102cac:	e5832000 	str	r2, [r3]
c0102cb0:	e3063478 	movw	r3, #25720	; 0x6478
c0102cb4:	e34c3013 	movt	r3, #49171	; 0xc013
c0102cb8:	e5933000 	ldr	r3, [r3]
c0102cbc:	e2833004 	add	r3, r3, #4
c0102cc0:	e3a02000 	mov	r2, #0
c0102cc4:	e5832000 	str	r2, [r3]
c0102cc8:	ee080f13 	mcr	15, 0, r0, cr8, cr3, {0}
c0102ccc:	e3a03000 	mov	r3, #0
c0102cd0:	e1a00003 	mov	r0, r3
c0102cd4:	e24bd004 	sub	sp, fp, #4
c0102cd8:	e8bd8800 	pop	{fp, pc}

c0102cdc <arch_vas_unmap>:
c0102cdc:	e52db004 	push	{fp}		; (str fp, [sp, #-4]!)
c0102ce0:	e28db000 	add	fp, sp, #0
c0102ce4:	e24dd024 	sub	sp, sp, #36	; 0x24
c0102ce8:	e50b0020 	str	r0, [fp, #-32]	; 0xffffffe0
c0102cec:	e51b3020 	ldr	r3, [fp, #-32]	; 0xffffffe0
c0102cf0:	e1a03623 	lsr	r3, r3, #12
c0102cf4:	e6ef3073 	uxtb	r3, r3
c0102cf8:	e50b3008 	str	r3, [fp, #-8]
c0102cfc:	e51b3020 	ldr	r3, [fp, #-32]	; 0xffffffe0
c0102d00:	e1a03a23 	lsr	r3, r3, #20
c0102d04:	e50b300c 	str	r3, [fp, #-12]
c0102d08:	e3063474 	movw	r3, #25716	; 0x6474
c0102d0c:	e34c3013 	movt	r3, #49171	; 0xc013
c0102d10:	e5932000 	ldr	r2, [r3]
c0102d14:	e51b300c 	ldr	r3, [fp, #-12]
c0102d18:	e1a03103 	lsl	r3, r3, #2
c0102d1c:	e0823003 	add	r3, r2, r3
c0102d20:	e5933000 	ldr	r3, [r3]
c0102d24:	e50b3010 	str	r3, [fp, #-16]
c0102d28:	e51b3010 	ldr	r3, [fp, #-16]
c0102d2c:	e2033003 	and	r3, r3, #3
c0102d30:	e3530000 	cmp	r3, #0
c0102d34:	1a000001 	bne	c0102d40 <arch_vas_unmap+0x64>
c0102d38:	e3a03001 	mov	r3, #1
c0102d3c:	ea000028 	b	c0102de4 <arch_vas_unmap+0x108>
c0102d40:	e51b3010 	ldr	r3, [fp, #-16]
c0102d44:	e2033002 	and	r3, r3, #2
c0102d48:	e3530000 	cmp	r3, #0
c0102d4c:	0a000001 	beq	c0102d58 <arch_vas_unmap+0x7c>
c0102d50:	e3a03001 	mov	r3, #1
c0102d54:	ea000022 	b	c0102de4 <arch_vas_unmap+0x108>
c0102d58:	e3063474 	movw	r3, #25716	; 0x6474
c0102d5c:	e34c3013 	movt	r3, #49171	; 0xc013
c0102d60:	e5932000 	ldr	r2, [r3]
c0102d64:	e51b300c 	ldr	r3, [fp, #-12]
c0102d68:	e1a03103 	lsl	r3, r3, #2
c0102d6c:	e0823003 	add	r3, r2, r3
c0102d70:	e5933000 	ldr	r3, [r3]
c0102d74:	e3c33fff 	bic	r3, r3, #1020	; 0x3fc
c0102d78:	e3c33003 	bic	r3, r3, #3
c0102d7c:	e50b3014 	str	r3, [fp, #-20]	; 0xffffffec
c0102d80:	e3063478 	movw	r3, #25720	; 0x6478
c0102d84:	e34c3013 	movt	r3, #49171	; 0xc013
c0102d88:	e5933000 	ldr	r3, [r3]
c0102d8c:	e2833004 	add	r3, r3, #4
c0102d90:	e51b2014 	ldr	r2, [fp, #-20]	; 0xffffffec
c0102d94:	e3822013 	orr	r2, r2, #19
c0102d98:	e5832000 	str	r2, [r3]
c0102d9c:	ee080f13 	mcr	15, 0, r0, cr8, cr3, {0}
c0102da0:	e3a03a01 	mov	r3, #4096	; 0x1000
c0102da4:	e34f3ff0 	movt	r3, #65520	; 0xfff0
c0102da8:	e50b3018 	str	r3, [fp, #-24]	; 0xffffffe8
c0102dac:	e51b3008 	ldr	r3, [fp, #-8]
c0102db0:	e1a03103 	lsl	r3, r3, #2
c0102db4:	e51b2018 	ldr	r2, [fp, #-24]	; 0xffffffe8
c0102db8:	e0823003 	add	r3, r2, r3
c0102dbc:	e3a02000 	mov	r2, #0
c0102dc0:	e5832000 	str	r2, [r3]
c0102dc4:	e3063478 	movw	r3, #25720	; 0x6478
c0102dc8:	e34c3013 	movt	r3, #49171	; 0xc013
c0102dcc:	e5933000 	ldr	r3, [r3]
c0102dd0:	e2833004 	add	r3, r3, #4
c0102dd4:	e3a02000 	mov	r2, #0
c0102dd8:	e5832000 	str	r2, [r3]
c0102ddc:	ee080f13 	mcr	15, 0, r0, cr8, cr3, {0}
c0102de0:	e3a03000 	mov	r3, #0
c0102de4:	e1a00003 	mov	r0, r3
c0102de8:	e28bd000 	add	sp, fp, #0
c0102dec:	e49db004 	pop	{fp}		; (ldr fp, [sp], #4)
c0102df0:	e12fff1e 	bx	lr

c0102df4 <arch_sysclock_init>:
c0102df4:	e92d4800 	push	{fp, lr}
c0102df8:	e28db004 	add	fp, sp, #4
c0102dfc:	e3030cb8 	movw	r0, #15544	; 0x3cb8
c0102e00:	e34c0010 	movt	r0, #49168	; 0xc010
c0102e04:	ebfff4ac 	bl	c01000bc <kprintf>
c0102e08:	e320f000 	nop	{0}
c0102e0c:	e8bd8800 	pop	{fp, pc}

c0102e10 <arch_sysclock_enable>:
c0102e10:	e92d4800 	push	{fp, lr}
c0102e14:	e28db004 	add	fp, sp, #4
c0102e18:	e3a0001d 	mov	r0, #29
c0102e1c:	eb000057 	bl	c0102f80 <gic_enable_interrupt>
c0102e20:	e3a01000 	mov	r1, #0
c0102e24:	e3a0001d 	mov	r0, #29
c0102e28:	eb000095 	bl	c0103084 <gic_set_priority>
c0102e2c:	eb0000fe 	bl	c010322c <cpu_get_periphbase>
c0102e30:	e1a03000 	mov	r3, r0
c0102e34:	e2833c06 	add	r3, r3, #1536	; 0x600
c0102e38:	e1a02003 	mov	r2, r3
c0102e3c:	e3043b40 	movw	r3, #19264	; 0x4b40
c0102e40:	e340304c 	movt	r3, #76	; 0x4c
c0102e44:	e5823000 	str	r3, [r2]
c0102e48:	eb0000f7 	bl	c010322c <cpu_get_periphbase>
c0102e4c:	e1a03000 	mov	r3, r0
c0102e50:	e2833c06 	add	r3, r3, #1536	; 0x600
c0102e54:	e2833008 	add	r3, r3, #8
c0102e58:	e1a02003 	mov	r2, r3
c0102e5c:	e3a03007 	mov	r3, #7
c0102e60:	e5823000 	str	r3, [r2]
c0102e64:	e3030cd0 	movw	r0, #15568	; 0x3cd0
c0102e68:	e34c0010 	movt	r0, #49168	; 0xc010
c0102e6c:	ebfff492 	bl	c01000bc <kprintf>
c0102e70:	e320f000 	nop	{0}
c0102e74:	e8bd8800 	pop	{fp, pc}

c0102e78 <arch_sysclock_disable>:
c0102e78:	e92d4800 	push	{fp, lr}
c0102e7c:	e28db004 	add	fp, sp, #4
c0102e80:	e3a0001d 	mov	r0, #29
c0102e84:	eb00005d 	bl	c0103000 <gic_disable_interrupt>
c0102e88:	e320f000 	nop	{0}
c0102e8c:	e8bd8800 	pop	{fp, pc}

c0102e90 <arch_sysclock_isr>:
c0102e90:	e92d4800 	push	{fp, lr}
c0102e94:	e28db004 	add	fp, sp, #4
c0102e98:	eb0000e3 	bl	c010322c <cpu_get_periphbase>
c0102e9c:	e1a03000 	mov	r3, r0
c0102ea0:	e2833c06 	add	r3, r3, #1536	; 0x600
c0102ea4:	e283300c 	add	r3, r3, #12
c0102ea8:	e1a02003 	mov	r2, r3
c0102eac:	e3a03000 	mov	r3, #0
c0102eb0:	e5823000 	str	r3, [r2]
c0102eb4:	ebfffac3 	bl	c01019c8 <sysclock_cb>
c0102eb8:	e320f000 	nop	{0}
c0102ebc:	e8bd8800 	pop	{fp, pc}

c0102ec0 <gic_init>:
c0102ec0:	e92d4830 	push	{r4, r5, fp, lr}
c0102ec4:	e28db00c 	add	fp, sp, #12
c0102ec8:	eb0000d7 	bl	c010322c <cpu_get_periphbase>
c0102ecc:	e1a03000 	mov	r3, r0
c0102ed0:	e1a04003 	mov	r4, r3
c0102ed4:	eb0000d4 	bl	c010322c <cpu_get_periphbase>
c0102ed8:	e1a03000 	mov	r3, r0
c0102edc:	e3a0200c 	mov	r2, #12
c0102ee0:	e1a01003 	mov	r1, r3
c0102ee4:	e1a00004 	mov	r0, r4
c0102ee8:	ebfffeb8 	bl	c01029d0 <arch_vas_map>
c0102eec:	eb0000ce 	bl	c010322c <cpu_get_periphbase>
c0102ef0:	e1a03000 	mov	r3, r0
c0102ef4:	e2833a01 	add	r3, r3, #4096	; 0x1000
c0102ef8:	e1a04003 	mov	r4, r3
c0102efc:	eb0000ca 	bl	c010322c <cpu_get_periphbase>
c0102f00:	e1a03000 	mov	r3, r0
c0102f04:	e2833a01 	add	r3, r3, #4096	; 0x1000
c0102f08:	e3a0200c 	mov	r2, #12
c0102f0c:	e1a01003 	mov	r1, r3
c0102f10:	e1a00004 	mov	r0, r4
c0102f14:	ebfffead 	bl	c01029d0 <arch_vas_map>
c0102f18:	eb0000c3 	bl	c010322c <cpu_get_periphbase>
c0102f1c:	e1a03000 	mov	r3, r0
c0102f20:	e2833a01 	add	r3, r3, #4096	; 0x1000
c0102f24:	e1a02003 	mov	r2, r3
c0102f28:	e3a03000 	mov	r3, #0
c0102f2c:	e5823000 	str	r3, [r2]
c0102f30:	eb0000bd 	bl	c010322c <cpu_get_periphbase>
c0102f34:	e1a03000 	mov	r3, r0
c0102f38:	e2833c01 	add	r3, r3, #256	; 0x100
c0102f3c:	e1a02003 	mov	r2, r3
c0102f40:	e3a03003 	mov	r3, #3
c0102f44:	e5823000 	str	r3, [r2]
c0102f48:	eb0000b7 	bl	c010322c <cpu_get_periphbase>
c0102f4c:	e1a03000 	mov	r3, r0
c0102f50:	e2833f41 	add	r3, r3, #260	; 0x104
c0102f54:	e1a02003 	mov	r2, r3
c0102f58:	e3e03000 	mvn	r3, #0
c0102f5c:	e5823000 	str	r3, [r2]
c0102f60:	eb0000b1 	bl	c010322c <cpu_get_periphbase>
c0102f64:	e1a03000 	mov	r3, r0
c0102f68:	e2833a01 	add	r3, r3, #4096	; 0x1000
c0102f6c:	e1a02003 	mov	r2, r3
c0102f70:	e3a03003 	mov	r3, #3
c0102f74:	e5823000 	str	r3, [r2]
c0102f78:	e320f000 	nop	{0}
c0102f7c:	e8bd8830 	pop	{r4, r5, fp, pc}

c0102f80 <gic_enable_interrupt>:
c0102f80:	e92d4810 	push	{r4, fp, lr}
c0102f84:	e28db008 	add	fp, sp, #8
c0102f88:	e24dd014 	sub	sp, sp, #20
c0102f8c:	e1a03000 	mov	r3, r0
c0102f90:	e54b3015 	strb	r3, [fp, #-21]	; 0xffffffeb
c0102f94:	e55b3015 	ldrb	r3, [fp, #-21]	; 0xffffffeb
c0102f98:	e1a032a3 	lsr	r3, r3, #5
c0102f9c:	e54b300d 	strb	r3, [fp, #-13]
c0102fa0:	e55b3015 	ldrb	r3, [fp, #-21]	; 0xffffffeb
c0102fa4:	e203301f 	and	r3, r3, #31
c0102fa8:	e54b300e 	strb	r3, [fp, #-14]
c0102fac:	e55b300d 	ldrb	r3, [fp, #-13]
c0102fb0:	e1a04103 	lsl	r4, r3, #2
c0102fb4:	eb00009c 	bl	c010322c <cpu_get_periphbase>
c0102fb8:	e1a03000 	mov	r3, r0
c0102fbc:	e0832004 	add	r2, r3, r4
c0102fc0:	e2822d42 	add	r2, r2, #4224	; 0x1080
c0102fc4:	e5922000 	ldr	r2, [r2]
c0102fc8:	e55b100e 	ldrb	r1, [fp, #-14]
c0102fcc:	e3a00001 	mov	r0, #1
c0102fd0:	e1a01110 	lsl	r1, r0, r1
c0102fd4:	e1a00001 	mov	r0, r1
c0102fd8:	e55b100d 	ldrb	r1, [fp, #-13]
c0102fdc:	e1a01101 	lsl	r1, r1, #2
c0102fe0:	e0833001 	add	r3, r3, r1
c0102fe4:	e2833d42 	add	r3, r3, #4224	; 0x1080
c0102fe8:	e1a01003 	mov	r1, r3
c0102fec:	e1823000 	orr	r3, r2, r0
c0102ff0:	e5813000 	str	r3, [r1]
c0102ff4:	e320f000 	nop	{0}
c0102ff8:	e24bd008 	sub	sp, fp, #8
c0102ffc:	e8bd8810 	pop	{r4, fp, pc}

c0103000 <gic_disable_interrupt>:
c0103000:	e92d4810 	push	{r4, fp, lr}
c0103004:	e28db008 	add	fp, sp, #8
c0103008:	e24dd014 	sub	sp, sp, #20
c010300c:	e1a03000 	mov	r3, r0
c0103010:	e54b3015 	strb	r3, [fp, #-21]	; 0xffffffeb
c0103014:	e55b3015 	ldrb	r3, [fp, #-21]	; 0xffffffeb
c0103018:	e1a032a3 	lsr	r3, r3, #5
c010301c:	e54b300d 	strb	r3, [fp, #-13]
c0103020:	e55b3015 	ldrb	r3, [fp, #-21]	; 0xffffffeb
c0103024:	e203301f 	and	r3, r3, #31
c0103028:	e54b300e 	strb	r3, [fp, #-14]
c010302c:	e55b300d 	ldrb	r3, [fp, #-13]
c0103030:	e1a04103 	lsl	r4, r3, #2
c0103034:	eb00007c 	bl	c010322c <cpu_get_periphbase>
c0103038:	e1a03000 	mov	r3, r0
c010303c:	e0832004 	add	r2, r3, r4
c0103040:	e2822d46 	add	r2, r2, #4480	; 0x1180
c0103044:	e5922000 	ldr	r2, [r2]
c0103048:	e55b100e 	ldrb	r1, [fp, #-14]
c010304c:	e3a00001 	mov	r0, #1
c0103050:	e1a01110 	lsl	r1, r0, r1
c0103054:	e1e01001 	mvn	r1, r1
c0103058:	e1a00001 	mov	r0, r1
c010305c:	e55b100d 	ldrb	r1, [fp, #-13]
c0103060:	e1a01101 	lsl	r1, r1, #2
c0103064:	e0833001 	add	r3, r3, r1
c0103068:	e2833d46 	add	r3, r3, #4480	; 0x1180
c010306c:	e1a01003 	mov	r1, r3
c0103070:	e0023000 	and	r3, r2, r0
c0103074:	e5813000 	str	r3, [r1]
c0103078:	e320f000 	nop	{0}
c010307c:	e24bd008 	sub	sp, fp, #8
c0103080:	e8bd8810 	pop	{r4, fp, pc}

c0103084 <gic_set_priority>:
c0103084:	e92d4810 	push	{r4, fp, lr}
c0103088:	e28db008 	add	fp, sp, #8
c010308c:	e24dd014 	sub	sp, sp, #20
c0103090:	e1a03000 	mov	r3, r0
c0103094:	e1a02001 	mov	r2, r1
c0103098:	e54b3015 	strb	r3, [fp, #-21]	; 0xffffffeb
c010309c:	e1a03002 	mov	r3, r2
c01030a0:	e54b3016 	strb	r3, [fp, #-22]	; 0xffffffea
c01030a4:	e55b3015 	ldrb	r3, [fp, #-21]	; 0xffffffeb
c01030a8:	e1a03123 	lsr	r3, r3, #2
c01030ac:	e54b300d 	strb	r3, [fp, #-13]
c01030b0:	e55b3015 	ldrb	r3, [fp, #-21]	; 0xffffffeb
c01030b4:	e2033003 	and	r3, r3, #3
c01030b8:	e6ef3073 	uxtb	r3, r3
c01030bc:	e1a03183 	lsl	r3, r3, #3
c01030c0:	e54b300e 	strb	r3, [fp, #-14]
c01030c4:	e55b300d 	ldrb	r3, [fp, #-13]
c01030c8:	e1a04103 	lsl	r4, r3, #2
c01030cc:	eb000056 	bl	c010322c <cpu_get_periphbase>
c01030d0:	e1a03000 	mov	r3, r0
c01030d4:	e0832004 	add	r2, r3, r4
c01030d8:	e2822b05 	add	r2, r2, #5120	; 0x1400
c01030dc:	e5922000 	ldr	r2, [r2]
c01030e0:	e55b100e 	ldrb	r1, [fp, #-14]
c01030e4:	e3a000ff 	mov	r0, #255	; 0xff
c01030e8:	e1a01110 	lsl	r1, r0, r1
c01030ec:	e1e01001 	mvn	r1, r1
c01030f0:	e1a00001 	mov	r0, r1
c01030f4:	e55b100d 	ldrb	r1, [fp, #-13]
c01030f8:	e1a01101 	lsl	r1, r1, #2
c01030fc:	e0833001 	add	r3, r3, r1
c0103100:	e2833b05 	add	r3, r3, #5120	; 0x1400
c0103104:	e1a01003 	mov	r1, r3
c0103108:	e0023000 	and	r3, r2, r0
c010310c:	e5813000 	str	r3, [r1]
c0103110:	e55b300d 	ldrb	r3, [fp, #-13]
c0103114:	e1a04103 	lsl	r4, r3, #2
c0103118:	eb000043 	bl	c010322c <cpu_get_periphbase>
c010311c:	e1a03000 	mov	r3, r0
c0103120:	e0832004 	add	r2, r3, r4
c0103124:	e2822b05 	add	r2, r2, #5120	; 0x1400
c0103128:	e5922000 	ldr	r2, [r2]
c010312c:	e55b0016 	ldrb	r0, [fp, #-22]	; 0xffffffea
c0103130:	e55b100e 	ldrb	r1, [fp, #-14]
c0103134:	e1a01110 	lsl	r1, r0, r1
c0103138:	e1a00001 	mov	r0, r1
c010313c:	e55b100d 	ldrb	r1, [fp, #-13]
c0103140:	e1a01101 	lsl	r1, r1, #2
c0103144:	e0833001 	add	r3, r3, r1
c0103148:	e2833b05 	add	r3, r3, #5120	; 0x1400
c010314c:	e1a01003 	mov	r1, r3
c0103150:	e1823000 	orr	r3, r2, r0
c0103154:	e5813000 	str	r3, [r1]
c0103158:	e320f000 	nop	{0}
c010315c:	e24bd008 	sub	sp, fp, #8
c0103160:	e8bd8810 	pop	{r4, fp, pc}

c0103164 <gic_ack_interrupt>:
c0103164:	e92d4800 	push	{fp, lr}
c0103168:	e28db004 	add	fp, sp, #4
c010316c:	eb00002e 	bl	c010322c <cpu_get_periphbase>
c0103170:	e1a03000 	mov	r3, r0
c0103174:	e2833f43 	add	r3, r3, #268	; 0x10c
c0103178:	e5933000 	ldr	r3, [r3]
c010317c:	e1a00003 	mov	r0, r3
c0103180:	e8bd8800 	pop	{fp, pc}

c0103184 <gic_end_interrupt>:
c0103184:	e92d4800 	push	{fp, lr}
c0103188:	e28db004 	add	fp, sp, #4
c010318c:	e24dd008 	sub	sp, sp, #8
c0103190:	e1a03000 	mov	r3, r0
c0103194:	e54b3005 	strb	r3, [fp, #-5]
c0103198:	eb000023 	bl	c010322c <cpu_get_periphbase>
c010319c:	e1a03000 	mov	r3, r0
c01031a0:	e2833e11 	add	r3, r3, #272	; 0x110
c01031a4:	e1a02003 	mov	r2, r3
c01031a8:	e55b3005 	ldrb	r3, [fp, #-5]
c01031ac:	e5823000 	str	r3, [r2]
c01031b0:	e320f000 	nop	{0}
c01031b4:	e24bd004 	sub	sp, fp, #4
c01031b8:	e8bd8800 	pop	{fp, pc}

c01031bc <gic_sgi>:
c01031bc:	e92d4810 	push	{r4, fp, lr}
c01031c0:	e28db008 	add	fp, sp, #8
c01031c4:	e24dd00c 	sub	sp, sp, #12
c01031c8:	e1a03000 	mov	r3, r0
c01031cc:	e54b300d 	strb	r3, [fp, #-13]
c01031d0:	e1a03001 	mov	r3, r1
c01031d4:	e54b300e 	strb	r3, [fp, #-14]
c01031d8:	e1a03002 	mov	r3, r2
c01031dc:	e54b300f 	strb	r3, [fp, #-15]
c01031e0:	e55b300d 	ldrb	r3, [fp, #-13]
c01031e4:	e1a03c03 	lsl	r3, r3, #24
c01031e8:	e2032403 	and	r2, r3, #50331648	; 0x3000000
c01031ec:	e55b300e 	ldrb	r3, [fp, #-14]
c01031f0:	e1a03803 	lsl	r3, r3, #16
c01031f4:	e203380f 	and	r3, r3, #983040	; 0xf0000
c01031f8:	e1823003 	orr	r3, r2, r3
c01031fc:	e3832902 	orr	r2, r3, #32768	; 0x8000
c0103200:	e55b300f 	ldrb	r3, [fp, #-15]
c0103204:	e203300f 	and	r3, r3, #15
c0103208:	e1824003 	orr	r4, r2, r3
c010320c:	eb000006 	bl	c010322c <cpu_get_periphbase>
c0103210:	e1a03000 	mov	r3, r0
c0103214:	e2833c1f 	add	r3, r3, #7936	; 0x1f00
c0103218:	e1a02004 	mov	r2, r4
c010321c:	e5832000 	str	r2, [r3]
c0103220:	e320f000 	nop	{0}
c0103224:	e24bd008 	sub	sp, fp, #8
c0103228:	e8bd8810 	pop	{r4, fp, pc}

c010322c <cpu_get_periphbase>:
c010322c:	e52db004 	push	{fp}		; (str fp, [sp, #-4]!)
c0103230:	e28db000 	add	fp, sp, #0
c0103234:	e24dd00c 	sub	sp, sp, #12
c0103238:	ee9f3f10 	mrc	15, 4, r3, cr15, cr0, {0}
c010323c:	e50b3008 	str	r3, [fp, #-8]
c0103240:	e51b3008 	ldr	r3, [fp, #-8]
c0103244:	e1a00003 	mov	r0, r3
c0103248:	e28bd000 	add	sp, fp, #0
c010324c:	e49db004 	pop	{fp}		; (ldr fp, [sp], #4)
c0103250:	e12fff1e 	bx	lr

c0103254 <cpu_enable_interrupts>:
c0103254:	e52db004 	push	{fp}		; (str fp, [sp, #-4]!)
c0103258:	e28db000 	add	fp, sp, #0
c010325c:	e24dd00c 	sub	sp, sp, #12
c0103260:	e10f3000 	mrs	r3, CPSR
c0103264:	e50b3008 	str	r3, [fp, #-8]
c0103268:	e51b3008 	ldr	r3, [fp, #-8]
c010326c:	e3c330c0 	bic	r3, r3, #192	; 0xc0
c0103270:	e50b3008 	str	r3, [fp, #-8]
c0103274:	e51b3008 	ldr	r3, [fp, #-8]
c0103278:	e129f003 	msr	CPSR_fc, r3
c010327c:	e320f000 	nop	{0}
c0103280:	e28bd000 	add	sp, fp, #0
c0103284:	e49db004 	pop	{fp}		; (ldr fp, [sp], #4)
c0103288:	e12fff1e 	bx	lr

c010328c <cpu_disable_interrupts>:
c010328c:	e52db004 	push	{fp}		; (str fp, [sp, #-4]!)
c0103290:	e28db000 	add	fp, sp, #0
c0103294:	e24dd00c 	sub	sp, sp, #12
c0103298:	e10f3000 	mrs	r3, CPSR
c010329c:	e50b3008 	str	r3, [fp, #-8]
c01032a0:	e51b3008 	ldr	r3, [fp, #-8]
c01032a4:	e38330c0 	orr	r3, r3, #192	; 0xc0
c01032a8:	e50b3008 	str	r3, [fp, #-8]
c01032ac:	e51b3008 	ldr	r3, [fp, #-8]
c01032b0:	e129f003 	msr	CPSR_fc, r3
c01032b4:	e320f000 	nop	{0}
c01032b8:	e28bd000 	add	sp, fp, #0
c01032bc:	e49db004 	pop	{fp}		; (ldr fp, [sp], #4)
c01032c0:	e12fff1e 	bx	lr

c01032c4 <__aeabi_dmul>:
c01032c4:	b570      	push	{r4, r5, r6, lr}
c01032c6:	f04f 0cff 	mov.w	ip, #255	; 0xff
c01032ca:	f44c 6ce0 	orr.w	ip, ip, #1792	; 0x700
c01032ce:	ea1c 5411 	ands.w	r4, ip, r1, lsr #20
c01032d2:	bf1d      	ittte	ne
c01032d4:	ea1c 5513 	andsne.w	r5, ip, r3, lsr #20
c01032d8:	ea94 0f0c 	teqne	r4, ip
c01032dc:	ea95 0f0c 	teqne	r5, ip
c01032e0:	f000 f8de 	bleq	c01034a0 <__aeabi_dmul+0x1dc>
c01032e4:	442c      	add	r4, r5
c01032e6:	ea81 0603 	eor.w	r6, r1, r3
c01032ea:	ea21 514c 	bic.w	r1, r1, ip, lsl #21
c01032ee:	ea23 534c 	bic.w	r3, r3, ip, lsl #21
c01032f2:	ea50 3501 	orrs.w	r5, r0, r1, lsl #12
c01032f6:	bf18      	it	ne
c01032f8:	ea52 3503 	orrsne.w	r5, r2, r3, lsl #12
c01032fc:	f441 1180 	orr.w	r1, r1, #1048576	; 0x100000
c0103300:	f443 1380 	orr.w	r3, r3, #1048576	; 0x100000
c0103304:	d038      	beq.n	c0103378 <__aeabi_dmul+0xb4>
c0103306:	fba0 ce02 	umull	ip, lr, r0, r2
c010330a:	f04f 0500 	mov.w	r5, #0
c010330e:	fbe1 e502 	umlal	lr, r5, r1, r2
c0103312:	f006 4200 	and.w	r2, r6, #2147483648	; 0x80000000
c0103316:	fbe0 e503 	umlal	lr, r5, r0, r3
c010331a:	f04f 0600 	mov.w	r6, #0
c010331e:	fbe1 5603 	umlal	r5, r6, r1, r3
c0103322:	f09c 0f00 	teq	ip, #0
c0103326:	bf18      	it	ne
c0103328:	f04e 0e01 	orrne.w	lr, lr, #1
c010332c:	f1a4 04ff 	sub.w	r4, r4, #255	; 0xff
c0103330:	f5b6 7f00 	cmp.w	r6, #512	; 0x200
c0103334:	f564 7440 	sbc.w	r4, r4, #768	; 0x300
c0103338:	d204      	bcs.n	c0103344 <__aeabi_dmul+0x80>
c010333a:	ea5f 0e4e 	movs.w	lr, lr, lsl #1
c010333e:	416d      	adcs	r5, r5
c0103340:	eb46 0606 	adc.w	r6, r6, r6
c0103344:	ea42 21c6 	orr.w	r1, r2, r6, lsl #11
c0103348:	ea41 5155 	orr.w	r1, r1, r5, lsr #21
c010334c:	ea4f 20c5 	mov.w	r0, r5, lsl #11
c0103350:	ea40 505e 	orr.w	r0, r0, lr, lsr #21
c0103354:	ea4f 2ece 	mov.w	lr, lr, lsl #11
c0103358:	f1b4 0cfd 	subs.w	ip, r4, #253	; 0xfd
c010335c:	bf88      	it	hi
c010335e:	f5bc 6fe0 	cmphi.w	ip, #1792	; 0x700
c0103362:	d81e      	bhi.n	c01033a2 <__aeabi_dmul+0xde>
c0103364:	f1be 4f00 	cmp.w	lr, #2147483648	; 0x80000000
c0103368:	bf08      	it	eq
c010336a:	ea5f 0e50 	movseq.w	lr, r0, lsr #1
c010336e:	f150 0000 	adcs.w	r0, r0, #0
c0103372:	eb41 5104 	adc.w	r1, r1, r4, lsl #20
c0103376:	bd70      	pop	{r4, r5, r6, pc}
c0103378:	f006 4600 	and.w	r6, r6, #2147483648	; 0x80000000
c010337c:	ea46 0101 	orr.w	r1, r6, r1
c0103380:	ea40 0002 	orr.w	r0, r0, r2
c0103384:	ea81 0103 	eor.w	r1, r1, r3
c0103388:	ebb4 045c 	subs.w	r4, r4, ip, lsr #1
c010338c:	bfc2      	ittt	gt
c010338e:	ebd4 050c 	rsbsgt	r5, r4, ip
c0103392:	ea41 5104 	orrgt.w	r1, r1, r4, lsl #20
c0103396:	bd70      	popgt	{r4, r5, r6, pc}
c0103398:	f441 1180 	orr.w	r1, r1, #1048576	; 0x100000
c010339c:	f04f 0e00 	mov.w	lr, #0
c01033a0:	3c01      	subs	r4, #1
c01033a2:	f300 80ab 	bgt.w	c01034fc <__aeabi_dmul+0x238>
c01033a6:	f114 0f36 	cmn.w	r4, #54	; 0x36
c01033aa:	bfde      	ittt	le
c01033ac:	2000      	movle	r0, #0
c01033ae:	f001 4100 	andle.w	r1, r1, #2147483648	; 0x80000000
c01033b2:	bd70      	pople	{r4, r5, r6, pc}
c01033b4:	f1c4 0400 	rsb	r4, r4, #0
c01033b8:	3c20      	subs	r4, #32
c01033ba:	da35      	bge.n	c0103428 <__aeabi_dmul+0x164>
c01033bc:	340c      	adds	r4, #12
c01033be:	dc1b      	bgt.n	c01033f8 <__aeabi_dmul+0x134>
c01033c0:	f104 0414 	add.w	r4, r4, #20
c01033c4:	f1c4 0520 	rsb	r5, r4, #32
c01033c8:	fa00 f305 	lsl.w	r3, r0, r5
c01033cc:	fa20 f004 	lsr.w	r0, r0, r4
c01033d0:	fa01 f205 	lsl.w	r2, r1, r5
c01033d4:	ea40 0002 	orr.w	r0, r0, r2
c01033d8:	f001 4200 	and.w	r2, r1, #2147483648	; 0x80000000
c01033dc:	f021 4100 	bic.w	r1, r1, #2147483648	; 0x80000000
c01033e0:	eb10 70d3 	adds.w	r0, r0, r3, lsr #31
c01033e4:	fa21 f604 	lsr.w	r6, r1, r4
c01033e8:	eb42 0106 	adc.w	r1, r2, r6
c01033ec:	ea5e 0e43 	orrs.w	lr, lr, r3, lsl #1
c01033f0:	bf08      	it	eq
c01033f2:	ea20 70d3 	biceq.w	r0, r0, r3, lsr #31
c01033f6:	bd70      	pop	{r4, r5, r6, pc}
c01033f8:	f1c4 040c 	rsb	r4, r4, #12
c01033fc:	f1c4 0520 	rsb	r5, r4, #32
c0103400:	fa00 f304 	lsl.w	r3, r0, r4
c0103404:	fa20 f005 	lsr.w	r0, r0, r5
c0103408:	fa01 f204 	lsl.w	r2, r1, r4
c010340c:	ea40 0002 	orr.w	r0, r0, r2
c0103410:	f001 4100 	and.w	r1, r1, #2147483648	; 0x80000000
c0103414:	eb10 70d3 	adds.w	r0, r0, r3, lsr #31
c0103418:	f141 0100 	adc.w	r1, r1, #0
c010341c:	ea5e 0e43 	orrs.w	lr, lr, r3, lsl #1
c0103420:	bf08      	it	eq
c0103422:	ea20 70d3 	biceq.w	r0, r0, r3, lsr #31
c0103426:	bd70      	pop	{r4, r5, r6, pc}
c0103428:	f1c4 0520 	rsb	r5, r4, #32
c010342c:	fa00 f205 	lsl.w	r2, r0, r5
c0103430:	ea4e 0e02 	orr.w	lr, lr, r2
c0103434:	fa20 f304 	lsr.w	r3, r0, r4
c0103438:	fa01 f205 	lsl.w	r2, r1, r5
c010343c:	ea43 0302 	orr.w	r3, r3, r2
c0103440:	fa21 f004 	lsr.w	r0, r1, r4
c0103444:	f001 4100 	and.w	r1, r1, #2147483648	; 0x80000000
c0103448:	fa21 f204 	lsr.w	r2, r1, r4
c010344c:	ea20 0002 	bic.w	r0, r0, r2
c0103450:	eb00 70d3 	add.w	r0, r0, r3, lsr #31
c0103454:	ea5e 0e43 	orrs.w	lr, lr, r3, lsl #1
c0103458:	bf08      	it	eq
c010345a:	ea20 70d3 	biceq.w	r0, r0, r3, lsr #31
c010345e:	bd70      	pop	{r4, r5, r6, pc}
c0103460:	f094 0f00 	teq	r4, #0
c0103464:	d10f      	bne.n	c0103486 <__aeabi_dmul+0x1c2>
c0103466:	f001 4600 	and.w	r6, r1, #2147483648	; 0x80000000
c010346a:	0040      	lsls	r0, r0, #1
c010346c:	eb41 0101 	adc.w	r1, r1, r1
c0103470:	f411 1f80 	tst.w	r1, #1048576	; 0x100000
c0103474:	bf08      	it	eq
c0103476:	3c01      	subeq	r4, #1
c0103478:	d0f7      	beq.n	c010346a <__aeabi_dmul+0x1a6>
c010347a:	ea41 0106 	orr.w	r1, r1, r6
c010347e:	f095 0f00 	teq	r5, #0
c0103482:	bf18      	it	ne
c0103484:	4770      	bxne	lr
c0103486:	f003 4600 	and.w	r6, r3, #2147483648	; 0x80000000
c010348a:	0052      	lsls	r2, r2, #1
c010348c:	eb43 0303 	adc.w	r3, r3, r3
c0103490:	f413 1f80 	tst.w	r3, #1048576	; 0x100000
c0103494:	bf08      	it	eq
c0103496:	3d01      	subeq	r5, #1
c0103498:	d0f7      	beq.n	c010348a <__aeabi_dmul+0x1c6>
c010349a:	ea43 0306 	orr.w	r3, r3, r6
c010349e:	4770      	bx	lr
c01034a0:	ea94 0f0c 	teq	r4, ip
c01034a4:	ea0c 5513 	and.w	r5, ip, r3, lsr #20
c01034a8:	bf18      	it	ne
c01034aa:	ea95 0f0c 	teqne	r5, ip
c01034ae:	d00c      	beq.n	c01034ca <__aeabi_dmul+0x206>
c01034b0:	ea50 0641 	orrs.w	r6, r0, r1, lsl #1
c01034b4:	bf18      	it	ne
c01034b6:	ea52 0643 	orrsne.w	r6, r2, r3, lsl #1
c01034ba:	d1d1      	bne.n	c0103460 <__aeabi_dmul+0x19c>
c01034bc:	ea81 0103 	eor.w	r1, r1, r3
c01034c0:	f001 4100 	and.w	r1, r1, #2147483648	; 0x80000000
c01034c4:	f04f 0000 	mov.w	r0, #0
c01034c8:	bd70      	pop	{r4, r5, r6, pc}
c01034ca:	ea50 0641 	orrs.w	r6, r0, r1, lsl #1
c01034ce:	bf06      	itte	eq
c01034d0:	4610      	moveq	r0, r2
c01034d2:	4619      	moveq	r1, r3
c01034d4:	ea52 0643 	orrsne.w	r6, r2, r3, lsl #1
c01034d8:	d019      	beq.n	c010350e <__aeabi_dmul+0x24a>
c01034da:	ea94 0f0c 	teq	r4, ip
c01034de:	d102      	bne.n	c01034e6 <__aeabi_dmul+0x222>
c01034e0:	ea50 3601 	orrs.w	r6, r0, r1, lsl #12
c01034e4:	d113      	bne.n	c010350e <__aeabi_dmul+0x24a>
c01034e6:	ea95 0f0c 	teq	r5, ip
c01034ea:	d105      	bne.n	c01034f8 <__aeabi_dmul+0x234>
c01034ec:	ea52 3603 	orrs.w	r6, r2, r3, lsl #12
c01034f0:	bf1c      	itt	ne
c01034f2:	4610      	movne	r0, r2
c01034f4:	4619      	movne	r1, r3
c01034f6:	d10a      	bne.n	c010350e <__aeabi_dmul+0x24a>
c01034f8:	ea81 0103 	eor.w	r1, r1, r3
c01034fc:	f001 4100 	and.w	r1, r1, #2147483648	; 0x80000000
c0103500:	f041 41fe 	orr.w	r1, r1, #2130706432	; 0x7f000000
c0103504:	f441 0170 	orr.w	r1, r1, #15728640	; 0xf00000
c0103508:	f04f 0000 	mov.w	r0, #0
c010350c:	bd70      	pop	{r4, r5, r6, pc}
c010350e:	f041 41fe 	orr.w	r1, r1, #2130706432	; 0x7f000000
c0103512:	f441 0178 	orr.w	r1, r1, #16252928	; 0xf80000
c0103516:	bd70      	pop	{r4, r5, r6, pc}

c0103518 <__udivsi3>:
c0103518:	1e4a      	subs	r2, r1, #1
c010351a:	bf08      	it	eq
c010351c:	4770      	bxeq	lr
c010351e:	d33d      	bcc.n	c010359c <__udivsi3+0x84>
c0103520:	4288      	cmp	r0, r1
c0103522:	d930      	bls.n	c0103586 <__udivsi3+0x6e>
c0103524:	4211      	tst	r1, r2
c0103526:	d032      	beq.n	c010358e <__udivsi3+0x76>
c0103528:	fab1 f381 	clz	r3, r1
c010352c:	fab0 f280 	clz	r2, r0
c0103530:	eba3 0202 	sub.w	r2, r3, r2
c0103534:	f04f 0301 	mov.w	r3, #1
c0103538:	fa01 f102 	lsl.w	r1, r1, r2
c010353c:	fa03 f302 	lsl.w	r3, r3, r2
c0103540:	f04f 0200 	mov.w	r2, #0
c0103544:	4288      	cmp	r0, r1
c0103546:	bf24      	itt	cs
c0103548:	1a40      	subcs	r0, r0, r1
c010354a:	431a      	orrcs	r2, r3
c010354c:	ebb0 0f51 	cmp.w	r0, r1, lsr #1
c0103550:	bf24      	itt	cs
c0103552:	eba0 0051 	subcs.w	r0, r0, r1, lsr #1
c0103556:	ea42 0253 	orrcs.w	r2, r2, r3, lsr #1
c010355a:	ebb0 0f91 	cmp.w	r0, r1, lsr #2
c010355e:	bf24      	itt	cs
c0103560:	eba0 0091 	subcs.w	r0, r0, r1, lsr #2
c0103564:	ea42 0293 	orrcs.w	r2, r2, r3, lsr #2
c0103568:	ebb0 0fd1 	cmp.w	r0, r1, lsr #3
c010356c:	bf24      	itt	cs
c010356e:	eba0 00d1 	subcs.w	r0, r0, r1, lsr #3
c0103572:	ea42 02d3 	orrcs.w	r2, r2, r3, lsr #3
c0103576:	2800      	cmp	r0, #0
c0103578:	bf1c      	itt	ne
c010357a:	ea5f 1313 	movsne.w	r3, r3, lsr #4
c010357e:	0909      	lsrne	r1, r1, #4
c0103580:	d1e0      	bne.n	c0103544 <__udivsi3+0x2c>
c0103582:	4610      	mov	r0, r2
c0103584:	4770      	bx	lr
c0103586:	bf0c      	ite	eq
c0103588:	2001      	moveq	r0, #1
c010358a:	2000      	movne	r0, #0
c010358c:	4770      	bx	lr
c010358e:	fab1 f281 	clz	r2, r1
c0103592:	f1c2 021f 	rsb	r2, r2, #31
c0103596:	fa20 f002 	lsr.w	r0, r0, r2
c010359a:	4770      	bx	lr
c010359c:	b108      	cbz	r0, c01035a2 <__udivsi3+0x8a>
c010359e:	f04f 30ff 	mov.w	r0, #4294967295	; 0xffffffff
c01035a2:	f000 b80f 	b.w	c01035c4 <__aeabi_idiv0>
c01035a6:	bf00      	nop

c01035a8 <__aeabi_uidivmod>:
c01035a8:	2900      	cmp	r1, #0
c01035aa:	d0f7      	beq.n	c010359c <__udivsi3+0x84>
c01035ac:	e92d 4003 	stmdb	sp!, {r0, r1, lr}
c01035b0:	f7ff ffb2 	bl	c0103518 <__udivsi3>
c01035b4:	e8bd 4006 	ldmia.w	sp!, {r1, r2, lr}
c01035b8:	fb02 f300 	mul.w	r3, r2, r0
c01035bc:	eba1 0103 	sub.w	r1, r1, r3
c01035c0:	4770      	bx	lr
c01035c2:	bf00      	nop

c01035c4 <__aeabi_idiv0>:
c01035c4:	4770      	bx	lr
c01035c6:	bf00      	nop

c01035c8 <__aeabi_drsub>:
c01035c8:	f081 4100 	eor.w	r1, r1, #2147483648	; 0x80000000
c01035cc:	e002      	b.n	c01035d4 <__adddf3>
c01035ce:	bf00      	nop

c01035d0 <__aeabi_dsub>:
c01035d0:	f083 4300 	eor.w	r3, r3, #2147483648	; 0x80000000

c01035d4 <__adddf3>:
c01035d4:	b530      	push	{r4, r5, lr}
c01035d6:	ea4f 0441 	mov.w	r4, r1, lsl #1
c01035da:	ea4f 0543 	mov.w	r5, r3, lsl #1
c01035de:	ea94 0f05 	teq	r4, r5
c01035e2:	bf08      	it	eq
c01035e4:	ea90 0f02 	teqeq	r0, r2
c01035e8:	bf1f      	itttt	ne
c01035ea:	ea54 0c00 	orrsne.w	ip, r4, r0
c01035ee:	ea55 0c02 	orrsne.w	ip, r5, r2
c01035f2:	ea7f 5c64 	mvnsne.w	ip, r4, asr #21
c01035f6:	ea7f 5c65 	mvnsne.w	ip, r5, asr #21
c01035fa:	f000 80e2 	beq.w	c01037c2 <__adddf3+0x1ee>
c01035fe:	ea4f 5454 	mov.w	r4, r4, lsr #21
c0103602:	ebd4 5555 	rsbs	r5, r4, r5, lsr #21
c0103606:	bfb8      	it	lt
c0103608:	426d      	neglt	r5, r5
c010360a:	dd0c      	ble.n	c0103626 <__adddf3+0x52>
c010360c:	442c      	add	r4, r5
c010360e:	ea80 0202 	eor.w	r2, r0, r2
c0103612:	ea81 0303 	eor.w	r3, r1, r3
c0103616:	ea82 0000 	eor.w	r0, r2, r0
c010361a:	ea83 0101 	eor.w	r1, r3, r1
c010361e:	ea80 0202 	eor.w	r2, r0, r2
c0103622:	ea81 0303 	eor.w	r3, r1, r3
c0103626:	2d36      	cmp	r5, #54	; 0x36
c0103628:	bf88      	it	hi
c010362a:	bd30      	pophi	{r4, r5, pc}
c010362c:	f011 4f00 	tst.w	r1, #2147483648	; 0x80000000
c0103630:	ea4f 3101 	mov.w	r1, r1, lsl #12
c0103634:	f44f 1c80 	mov.w	ip, #1048576	; 0x100000
c0103638:	ea4c 3111 	orr.w	r1, ip, r1, lsr #12
c010363c:	d002      	beq.n	c0103644 <__adddf3+0x70>
c010363e:	4240      	negs	r0, r0
c0103640:	eb61 0141 	sbc.w	r1, r1, r1, lsl #1
c0103644:	f013 4f00 	tst.w	r3, #2147483648	; 0x80000000
c0103648:	ea4f 3303 	mov.w	r3, r3, lsl #12
c010364c:	ea4c 3313 	orr.w	r3, ip, r3, lsr #12
c0103650:	d002      	beq.n	c0103658 <__adddf3+0x84>
c0103652:	4252      	negs	r2, r2
c0103654:	eb63 0343 	sbc.w	r3, r3, r3, lsl #1
c0103658:	ea94 0f05 	teq	r4, r5
c010365c:	f000 80a7 	beq.w	c01037ae <__adddf3+0x1da>
c0103660:	f1a4 0401 	sub.w	r4, r4, #1
c0103664:	f1d5 0e20 	rsbs	lr, r5, #32
c0103668:	db0d      	blt.n	c0103686 <__adddf3+0xb2>
c010366a:	fa02 fc0e 	lsl.w	ip, r2, lr
c010366e:	fa22 f205 	lsr.w	r2, r2, r5
c0103672:	1880      	adds	r0, r0, r2
c0103674:	f141 0100 	adc.w	r1, r1, #0
c0103678:	fa03 f20e 	lsl.w	r2, r3, lr
c010367c:	1880      	adds	r0, r0, r2
c010367e:	fa43 f305 	asr.w	r3, r3, r5
c0103682:	4159      	adcs	r1, r3
c0103684:	e00e      	b.n	c01036a4 <__adddf3+0xd0>
c0103686:	f1a5 0520 	sub.w	r5, r5, #32
c010368a:	f10e 0e20 	add.w	lr, lr, #32
c010368e:	2a01      	cmp	r2, #1
c0103690:	fa03 fc0e 	lsl.w	ip, r3, lr
c0103694:	bf28      	it	cs
c0103696:	f04c 0c02 	orrcs.w	ip, ip, #2
c010369a:	fa43 f305 	asr.w	r3, r3, r5
c010369e:	18c0      	adds	r0, r0, r3
c01036a0:	eb51 71e3 	adcs.w	r1, r1, r3, asr #31
c01036a4:	f001 4500 	and.w	r5, r1, #2147483648	; 0x80000000
c01036a8:	d507      	bpl.n	c01036ba <__adddf3+0xe6>
c01036aa:	f04f 0e00 	mov.w	lr, #0
c01036ae:	f1dc 0c00 	rsbs	ip, ip, #0
c01036b2:	eb7e 0000 	sbcs.w	r0, lr, r0
c01036b6:	eb6e 0101 	sbc.w	r1, lr, r1
c01036ba:	f5b1 1f80 	cmp.w	r1, #1048576	; 0x100000
c01036be:	d31b      	bcc.n	c01036f8 <__adddf3+0x124>
c01036c0:	f5b1 1f00 	cmp.w	r1, #2097152	; 0x200000
c01036c4:	d30c      	bcc.n	c01036e0 <__adddf3+0x10c>
c01036c6:	0849      	lsrs	r1, r1, #1
c01036c8:	ea5f 0030 	movs.w	r0, r0, rrx
c01036cc:	ea4f 0c3c 	mov.w	ip, ip, rrx
c01036d0:	f104 0401 	add.w	r4, r4, #1
c01036d4:	ea4f 5244 	mov.w	r2, r4, lsl #21
c01036d8:	f512 0f80 	cmn.w	r2, #4194304	; 0x400000
c01036dc:	f080 809a 	bcs.w	c0103814 <__adddf3+0x240>
c01036e0:	f1bc 4f00 	cmp.w	ip, #2147483648	; 0x80000000
c01036e4:	bf08      	it	eq
c01036e6:	ea5f 0c50 	movseq.w	ip, r0, lsr #1
c01036ea:	f150 0000 	adcs.w	r0, r0, #0
c01036ee:	eb41 5104 	adc.w	r1, r1, r4, lsl #20
c01036f2:	ea41 0105 	orr.w	r1, r1, r5
c01036f6:	bd30      	pop	{r4, r5, pc}
c01036f8:	ea5f 0c4c 	movs.w	ip, ip, lsl #1
c01036fc:	4140      	adcs	r0, r0
c01036fe:	eb41 0101 	adc.w	r1, r1, r1
c0103702:	3c01      	subs	r4, #1
c0103704:	bf28      	it	cs
c0103706:	f5b1 1f80 	cmpcs.w	r1, #1048576	; 0x100000
c010370a:	d2e9      	bcs.n	c01036e0 <__adddf3+0x10c>
c010370c:	f091 0f00 	teq	r1, #0
c0103710:	bf04      	itt	eq
c0103712:	4601      	moveq	r1, r0
c0103714:	2000      	moveq	r0, #0
c0103716:	fab1 f381 	clz	r3, r1
c010371a:	bf08      	it	eq
c010371c:	3320      	addeq	r3, #32
c010371e:	f1a3 030b 	sub.w	r3, r3, #11
c0103722:	f1b3 0220 	subs.w	r2, r3, #32
c0103726:	da0c      	bge.n	c0103742 <__adddf3+0x16e>
c0103728:	320c      	adds	r2, #12
c010372a:	dd08      	ble.n	c010373e <__adddf3+0x16a>
c010372c:	f102 0c14 	add.w	ip, r2, #20
c0103730:	f1c2 020c 	rsb	r2, r2, #12
c0103734:	fa01 f00c 	lsl.w	r0, r1, ip
c0103738:	fa21 f102 	lsr.w	r1, r1, r2
c010373c:	e00c      	b.n	c0103758 <__adddf3+0x184>
c010373e:	f102 0214 	add.w	r2, r2, #20
c0103742:	bfd8      	it	le
c0103744:	f1c2 0c20 	rsble	ip, r2, #32
c0103748:	fa01 f102 	lsl.w	r1, r1, r2
c010374c:	fa20 fc0c 	lsr.w	ip, r0, ip
c0103750:	bfdc      	itt	le
c0103752:	ea41 010c 	orrle.w	r1, r1, ip
c0103756:	4090      	lslle	r0, r2
c0103758:	1ae4      	subs	r4, r4, r3
c010375a:	bfa2      	ittt	ge
c010375c:	eb01 5104 	addge.w	r1, r1, r4, lsl #20
c0103760:	4329      	orrge	r1, r5
c0103762:	bd30      	popge	{r4, r5, pc}
c0103764:	ea6f 0404 	mvn.w	r4, r4
c0103768:	3c1f      	subs	r4, #31
c010376a:	da1c      	bge.n	c01037a6 <__adddf3+0x1d2>
c010376c:	340c      	adds	r4, #12
c010376e:	dc0e      	bgt.n	c010378e <__adddf3+0x1ba>
c0103770:	f104 0414 	add.w	r4, r4, #20
c0103774:	f1c4 0220 	rsb	r2, r4, #32
c0103778:	fa20 f004 	lsr.w	r0, r0, r4
c010377c:	fa01 f302 	lsl.w	r3, r1, r2
c0103780:	ea40 0003 	orr.w	r0, r0, r3
c0103784:	fa21 f304 	lsr.w	r3, r1, r4
c0103788:	ea45 0103 	orr.w	r1, r5, r3
c010378c:	bd30      	pop	{r4, r5, pc}
c010378e:	f1c4 040c 	rsb	r4, r4, #12
c0103792:	f1c4 0220 	rsb	r2, r4, #32
c0103796:	fa20 f002 	lsr.w	r0, r0, r2
c010379a:	fa01 f304 	lsl.w	r3, r1, r4
c010379e:	ea40 0003 	orr.w	r0, r0, r3
c01037a2:	4629      	mov	r1, r5
c01037a4:	bd30      	pop	{r4, r5, pc}
c01037a6:	fa21 f004 	lsr.w	r0, r1, r4
c01037aa:	4629      	mov	r1, r5
c01037ac:	bd30      	pop	{r4, r5, pc}
c01037ae:	f094 0f00 	teq	r4, #0
c01037b2:	f483 1380 	eor.w	r3, r3, #1048576	; 0x100000
c01037b6:	bf06      	itte	eq
c01037b8:	f481 1180 	eoreq.w	r1, r1, #1048576	; 0x100000
c01037bc:	3401      	addeq	r4, #1
c01037be:	3d01      	subne	r5, #1
c01037c0:	e74e      	b.n	c0103660 <__adddf3+0x8c>
c01037c2:	ea7f 5c64 	mvns.w	ip, r4, asr #21
c01037c6:	bf18      	it	ne
c01037c8:	ea7f 5c65 	mvnsne.w	ip, r5, asr #21
c01037cc:	d029      	beq.n	c0103822 <__adddf3+0x24e>
c01037ce:	ea94 0f05 	teq	r4, r5
c01037d2:	bf08      	it	eq
c01037d4:	ea90 0f02 	teqeq	r0, r2
c01037d8:	d005      	beq.n	c01037e6 <__adddf3+0x212>
c01037da:	ea54 0c00 	orrs.w	ip, r4, r0
c01037de:	bf04      	itt	eq
c01037e0:	4619      	moveq	r1, r3
c01037e2:	4610      	moveq	r0, r2
c01037e4:	bd30      	pop	{r4, r5, pc}
c01037e6:	ea91 0f03 	teq	r1, r3
c01037ea:	bf1e      	ittt	ne
c01037ec:	2100      	movne	r1, #0
c01037ee:	2000      	movne	r0, #0
c01037f0:	bd30      	popne	{r4, r5, pc}
c01037f2:	ea5f 5c54 	movs.w	ip, r4, lsr #21
c01037f6:	d105      	bne.n	c0103804 <__adddf3+0x230>
c01037f8:	0040      	lsls	r0, r0, #1
c01037fa:	4149      	adcs	r1, r1
c01037fc:	bf28      	it	cs
c01037fe:	f041 4100 	orrcs.w	r1, r1, #2147483648	; 0x80000000
c0103802:	bd30      	pop	{r4, r5, pc}
c0103804:	f514 0480 	adds.w	r4, r4, #4194304	; 0x400000
c0103808:	bf3c      	itt	cc
c010380a:	f501 1180 	addcc.w	r1, r1, #1048576	; 0x100000
c010380e:	bd30      	popcc	{r4, r5, pc}
c0103810:	f001 4500 	and.w	r5, r1, #2147483648	; 0x80000000
c0103814:	f045 41fe 	orr.w	r1, r5, #2130706432	; 0x7f000000
c0103818:	f441 0170 	orr.w	r1, r1, #15728640	; 0xf00000
c010381c:	f04f 0000 	mov.w	r0, #0
c0103820:	bd30      	pop	{r4, r5, pc}
c0103822:	ea7f 5c64 	mvns.w	ip, r4, asr #21
c0103826:	bf1a      	itte	ne
c0103828:	4619      	movne	r1, r3
c010382a:	4610      	movne	r0, r2
c010382c:	ea7f 5c65 	mvnseq.w	ip, r5, asr #21
c0103830:	bf1c      	itt	ne
c0103832:	460b      	movne	r3, r1
c0103834:	4602      	movne	r2, r0
c0103836:	ea50 3401 	orrs.w	r4, r0, r1, lsl #12
c010383a:	bf06      	itte	eq
c010383c:	ea52 3503 	orrseq.w	r5, r2, r3, lsl #12
c0103840:	ea91 0f03 	teqeq	r1, r3
c0103844:	f441 2100 	orrne.w	r1, r1, #524288	; 0x80000
c0103848:	bd30      	pop	{r4, r5, pc}
c010384a:	bf00      	nop

c010384c <__aeabi_ui2d>:
c010384c:	f090 0f00 	teq	r0, #0
c0103850:	bf04      	itt	eq
c0103852:	2100      	moveq	r1, #0
c0103854:	4770      	bxeq	lr
c0103856:	b530      	push	{r4, r5, lr}
c0103858:	f44f 6480 	mov.w	r4, #1024	; 0x400
c010385c:	f104 0432 	add.w	r4, r4, #50	; 0x32
c0103860:	f04f 0500 	mov.w	r5, #0
c0103864:	f04f 0100 	mov.w	r1, #0
c0103868:	e750      	b.n	c010370c <__adddf3+0x138>
c010386a:	bf00      	nop

c010386c <__aeabi_i2d>:
c010386c:	f090 0f00 	teq	r0, #0
c0103870:	bf04      	itt	eq
c0103872:	2100      	moveq	r1, #0
c0103874:	4770      	bxeq	lr
c0103876:	b530      	push	{r4, r5, lr}
c0103878:	f44f 6480 	mov.w	r4, #1024	; 0x400
c010387c:	f104 0432 	add.w	r4, r4, #50	; 0x32
c0103880:	f010 4500 	ands.w	r5, r0, #2147483648	; 0x80000000
c0103884:	bf48      	it	mi
c0103886:	4240      	negmi	r0, r0
c0103888:	f04f 0100 	mov.w	r1, #0
c010388c:	e73e      	b.n	c010370c <__adddf3+0x138>
c010388e:	bf00      	nop

c0103890 <__aeabi_f2d>:
c0103890:	0042      	lsls	r2, r0, #1
c0103892:	ea4f 01e2 	mov.w	r1, r2, asr #3
c0103896:	ea4f 0131 	mov.w	r1, r1, rrx
c010389a:	ea4f 7002 	mov.w	r0, r2, lsl #28
c010389e:	bf1f      	itttt	ne
c01038a0:	f012 437f 	andsne.w	r3, r2, #4278190080	; 0xff000000
c01038a4:	f093 4f7f 	teqne	r3, #4278190080	; 0xff000000
c01038a8:	f081 5160 	eorne.w	r1, r1, #939524096	; 0x38000000
c01038ac:	4770      	bxne	lr
c01038ae:	f032 427f 	bics.w	r2, r2, #4278190080	; 0xff000000
c01038b2:	bf08      	it	eq
c01038b4:	4770      	bxeq	lr
c01038b6:	f093 4f7f 	teq	r3, #4278190080	; 0xff000000
c01038ba:	bf04      	itt	eq
c01038bc:	f441 2100 	orreq.w	r1, r1, #524288	; 0x80000
c01038c0:	4770      	bxeq	lr
c01038c2:	b530      	push	{r4, r5, lr}
c01038c4:	f44f 7460 	mov.w	r4, #896	; 0x380
c01038c8:	f001 4500 	and.w	r5, r1, #2147483648	; 0x80000000
c01038cc:	f021 4100 	bic.w	r1, r1, #2147483648	; 0x80000000
c01038d0:	e71c      	b.n	c010370c <__adddf3+0x138>
c01038d2:	bf00      	nop

c01038d4 <__aeabi_ul2d>:
c01038d4:	ea50 0201 	orrs.w	r2, r0, r1
c01038d8:	bf08      	it	eq
c01038da:	4770      	bxeq	lr
c01038dc:	b530      	push	{r4, r5, lr}
c01038de:	f04f 0500 	mov.w	r5, #0
c01038e2:	e00a      	b.n	c01038fa <__aeabi_l2d+0x16>

c01038e4 <__aeabi_l2d>:
c01038e4:	ea50 0201 	orrs.w	r2, r0, r1
c01038e8:	bf08      	it	eq
c01038ea:	4770      	bxeq	lr
c01038ec:	b530      	push	{r4, r5, lr}
c01038ee:	f011 4500 	ands.w	r5, r1, #2147483648	; 0x80000000
c01038f2:	d502      	bpl.n	c01038fa <__aeabi_l2d+0x16>
c01038f4:	4240      	negs	r0, r0
c01038f6:	eb61 0141 	sbc.w	r1, r1, r1, lsl #1
c01038fa:	f44f 6480 	mov.w	r4, #1024	; 0x400
c01038fe:	f104 0432 	add.w	r4, r4, #50	; 0x32
c0103902:	ea5f 5c91 	movs.w	ip, r1, lsr #22
c0103906:	f43f aed8 	beq.w	c01036ba <__adddf3+0xe6>
c010390a:	f04f 0203 	mov.w	r2, #3
c010390e:	ea5f 0cdc 	movs.w	ip, ip, lsr #3
c0103912:	bf18      	it	ne
c0103914:	3203      	addne	r2, #3
c0103916:	ea5f 0cdc 	movs.w	ip, ip, lsr #3
c010391a:	bf18      	it	ne
c010391c:	3203      	addne	r2, #3
c010391e:	eb02 02dc 	add.w	r2, r2, ip, lsr #3
c0103922:	f1c2 0320 	rsb	r3, r2, #32
c0103926:	fa00 fc03 	lsl.w	ip, r0, r3
c010392a:	fa20 f002 	lsr.w	r0, r0, r2
c010392e:	fa01 fe03 	lsl.w	lr, r1, r3
c0103932:	ea40 000e 	orr.w	r0, r0, lr
c0103936:	fa21 f102 	lsr.w	r1, r1, r2
c010393a:	4414      	add	r4, r2
c010393c:	e6bd      	b.n	c01036ba <__adddf3+0xe6>
c010393e:	bf00      	nop

c0103940 <__gedf2>:
c0103940:	f04f 3cff 	mov.w	ip, #4294967295	; 0xffffffff
c0103944:	e006      	b.n	c0103954 <__cmpdf2+0x4>
c0103946:	bf00      	nop

c0103948 <__ledf2>:
c0103948:	f04f 0c01 	mov.w	ip, #1
c010394c:	e002      	b.n	c0103954 <__cmpdf2+0x4>
c010394e:	bf00      	nop

c0103950 <__cmpdf2>:
c0103950:	f04f 0c01 	mov.w	ip, #1
c0103954:	f84d cd04 	str.w	ip, [sp, #-4]!
c0103958:	ea4f 0c41 	mov.w	ip, r1, lsl #1
c010395c:	ea7f 5c6c 	mvns.w	ip, ip, asr #21
c0103960:	ea4f 0c43 	mov.w	ip, r3, lsl #1
c0103964:	bf18      	it	ne
c0103966:	ea7f 5c6c 	mvnsne.w	ip, ip, asr #21
c010396a:	d01b      	beq.n	c01039a4 <__cmpdf2+0x54>
c010396c:	b001      	add	sp, #4
c010396e:	ea50 0c41 	orrs.w	ip, r0, r1, lsl #1
c0103972:	bf0c      	ite	eq
c0103974:	ea52 0c43 	orrseq.w	ip, r2, r3, lsl #1
c0103978:	ea91 0f03 	teqne	r1, r3
c010397c:	bf02      	ittt	eq
c010397e:	ea90 0f02 	teqeq	r0, r2
c0103982:	2000      	moveq	r0, #0
c0103984:	4770      	bxeq	lr
c0103986:	f110 0f00 	cmn.w	r0, #0
c010398a:	ea91 0f03 	teq	r1, r3
c010398e:	bf58      	it	pl
c0103990:	4299      	cmppl	r1, r3
c0103992:	bf08      	it	eq
c0103994:	4290      	cmpeq	r0, r2
c0103996:	bf2c      	ite	cs
c0103998:	17d8      	asrcs	r0, r3, #31
c010399a:	ea6f 70e3 	mvncc.w	r0, r3, asr #31
c010399e:	f040 0001 	orr.w	r0, r0, #1
c01039a2:	4770      	bx	lr
c01039a4:	ea4f 0c41 	mov.w	ip, r1, lsl #1
c01039a8:	ea7f 5c6c 	mvns.w	ip, ip, asr #21
c01039ac:	d102      	bne.n	c01039b4 <__cmpdf2+0x64>
c01039ae:	ea50 3c01 	orrs.w	ip, r0, r1, lsl #12
c01039b2:	d107      	bne.n	c01039c4 <__cmpdf2+0x74>
c01039b4:	ea4f 0c43 	mov.w	ip, r3, lsl #1
c01039b8:	ea7f 5c6c 	mvns.w	ip, ip, asr #21
c01039bc:	d1d6      	bne.n	c010396c <__cmpdf2+0x1c>
c01039be:	ea52 3c03 	orrs.w	ip, r2, r3, lsl #12
c01039c2:	d0d3      	beq.n	c010396c <__cmpdf2+0x1c>
c01039c4:	f85d 0b04 	ldr.w	r0, [sp], #4
c01039c8:	4770      	bx	lr
c01039ca:	bf00      	nop

c01039cc <__aeabi_cdrcmple>:
c01039cc:	4684      	mov	ip, r0
c01039ce:	4610      	mov	r0, r2
c01039d0:	4662      	mov	r2, ip
c01039d2:	468c      	mov	ip, r1
c01039d4:	4619      	mov	r1, r3
c01039d6:	4663      	mov	r3, ip
c01039d8:	e000      	b.n	c01039dc <__aeabi_cdcmpeq>
c01039da:	bf00      	nop

c01039dc <__aeabi_cdcmpeq>:
c01039dc:	b501      	push	{r0, lr}
c01039de:	f7ff ffb7 	bl	c0103950 <__cmpdf2>
c01039e2:	2800      	cmp	r0, #0
c01039e4:	bf48      	it	mi
c01039e6:	f110 0f00 	cmnmi.w	r0, #0
c01039ea:	bd01      	pop	{r0, pc}

c01039ec <__aeabi_dcmpeq>:
c01039ec:	f84d ed08 	str.w	lr, [sp, #-8]!
c01039f0:	f7ff fff4 	bl	c01039dc <__aeabi_cdcmpeq>
c01039f4:	bf0c      	ite	eq
c01039f6:	2001      	moveq	r0, #1
c01039f8:	2000      	movne	r0, #0
c01039fa:	f85d fb08 	ldr.w	pc, [sp], #8
c01039fe:	bf00      	nop

c0103a00 <__aeabi_dcmplt>:
c0103a00:	f84d ed08 	str.w	lr, [sp, #-8]!
c0103a04:	f7ff ffea 	bl	c01039dc <__aeabi_cdcmpeq>
c0103a08:	bf34      	ite	cc
c0103a0a:	2001      	movcc	r0, #1
c0103a0c:	2000      	movcs	r0, #0
c0103a0e:	f85d fb08 	ldr.w	pc, [sp], #8
c0103a12:	bf00      	nop

c0103a14 <__aeabi_dcmple>:
c0103a14:	f84d ed08 	str.w	lr, [sp, #-8]!
c0103a18:	f7ff ffe0 	bl	c01039dc <__aeabi_cdcmpeq>
c0103a1c:	bf94      	ite	ls
c0103a1e:	2001      	movls	r0, #1
c0103a20:	2000      	movhi	r0, #0
c0103a22:	f85d fb08 	ldr.w	pc, [sp], #8
c0103a26:	bf00      	nop

c0103a28 <__aeabi_dcmpge>:
c0103a28:	f84d ed08 	str.w	lr, [sp, #-8]!
c0103a2c:	f7ff ffce 	bl	c01039cc <__aeabi_cdrcmple>
c0103a30:	bf94      	ite	ls
c0103a32:	2001      	movls	r0, #1
c0103a34:	2000      	movhi	r0, #0
c0103a36:	f85d fb08 	ldr.w	pc, [sp], #8
c0103a3a:	bf00      	nop

c0103a3c <__aeabi_dcmpgt>:
c0103a3c:	f84d ed08 	str.w	lr, [sp, #-8]!
c0103a40:	f7ff ffc4 	bl	c01039cc <__aeabi_cdrcmple>
c0103a44:	bf34      	ite	cc
c0103a46:	2001      	movcc	r0, #1
c0103a48:	2000      	movcs	r0, #0
c0103a4a:	f85d fb08 	ldr.w	pc, [sp], #8
c0103a4e:	bf00      	nop

c0103a50 <__aeabi_d2iz>:
c0103a50:	ea4f 0241 	mov.w	r2, r1, lsl #1
c0103a54:	f512 1200 	adds.w	r2, r2, #2097152	; 0x200000
c0103a58:	d215      	bcs.n	c0103a86 <__aeabi_d2iz+0x36>
c0103a5a:	d511      	bpl.n	c0103a80 <__aeabi_d2iz+0x30>
c0103a5c:	f46f 7378 	mvn.w	r3, #992	; 0x3e0
c0103a60:	ebb3 5262 	subs.w	r2, r3, r2, asr #21
c0103a64:	d912      	bls.n	c0103a8c <__aeabi_d2iz+0x3c>
c0103a66:	ea4f 23c1 	mov.w	r3, r1, lsl #11
c0103a6a:	f043 4300 	orr.w	r3, r3, #2147483648	; 0x80000000
c0103a6e:	ea43 5350 	orr.w	r3, r3, r0, lsr #21
c0103a72:	f011 4f00 	tst.w	r1, #2147483648	; 0x80000000
c0103a76:	fa23 f002 	lsr.w	r0, r3, r2
c0103a7a:	bf18      	it	ne
c0103a7c:	4240      	negne	r0, r0
c0103a7e:	4770      	bx	lr
c0103a80:	f04f 0000 	mov.w	r0, #0
c0103a84:	4770      	bx	lr
c0103a86:	ea50 3001 	orrs.w	r0, r0, r1, lsl #12
c0103a8a:	d105      	bne.n	c0103a98 <__aeabi_d2iz+0x48>
c0103a8c:	f011 4000 	ands.w	r0, r1, #2147483648	; 0x80000000
c0103a90:	bf08      	it	eq
c0103a92:	f06f 4000 	mvneq.w	r0, #2147483648	; 0x80000000
c0103a96:	4770      	bx	lr
c0103a98:	f04f 0000 	mov.w	r0, #0
c0103a9c:	4770      	bx	lr
c0103a9e:	bf00      	nop

c0103aa0 <__aeabi_uldivmod>:
c0103aa0:	b953      	cbnz	r3, c0103ab8 <__aeabi_uldivmod+0x18>
c0103aa2:	b94a      	cbnz	r2, c0103ab8 <__aeabi_uldivmod+0x18>
c0103aa4:	2900      	cmp	r1, #0
c0103aa6:	bf08      	it	eq
c0103aa8:	2800      	cmpeq	r0, #0
c0103aaa:	bf1c      	itt	ne
c0103aac:	f04f 31ff 	movne.w	r1, #4294967295	; 0xffffffff
c0103ab0:	f04f 30ff 	movne.w	r0, #4294967295	; 0xffffffff
c0103ab4:	f7ff bd86 	b.w	c01035c4 <__aeabi_idiv0>
c0103ab8:	f1ad 0c08 	sub.w	ip, sp, #8
c0103abc:	e96d ce04 	strd	ip, lr, [sp, #-16]!
c0103ac0:	f000 f806 	bl	c0103ad0 <__udivmoddi4>
c0103ac4:	f8dd e004 	ldr.w	lr, [sp, #4]
c0103ac8:	e9dd 2302 	ldrd	r2, r3, [sp, #8]
c0103acc:	b004      	add	sp, #16
c0103ace:	4770      	bx	lr

c0103ad0 <__udivmoddi4>:
c0103ad0:	e92d 43f0 	stmdb	sp!, {r4, r5, r6, r7, r8, r9, lr}
c0103ad4:	4290      	cmp	r0, r2
c0103ad6:	460d      	mov	r5, r1
c0103ad8:	9f07      	ldr	r7, [sp, #28]
c0103ada:	4604      	mov	r4, r0
c0103adc:	eb75 0103 	sbcs.w	r1, r5, r3
c0103ae0:	d36f      	bcc.n	c0103bc2 <__udivmoddi4+0xf2>
c0103ae2:	2b00      	cmp	r3, #0
c0103ae4:	d05f      	beq.n	c0103ba6 <__udivmoddi4+0xd6>
c0103ae6:	fab3 f683 	clz	r6, r3
c0103aea:	2d00      	cmp	r5, #0
c0103aec:	d05f      	beq.n	c0103bae <__udivmoddi4+0xde>
c0103aee:	fab5 f185 	clz	r1, r5
c0103af2:	1a76      	subs	r6, r6, r1
c0103af4:	f1a6 0020 	sub.w	r0, r6, #32
c0103af8:	f1c6 0120 	rsb	r1, r6, #32
c0103afc:	40b3      	lsls	r3, r6
c0103afe:	f1a6 0c20 	sub.w	ip, r6, #32
c0103b02:	fa02 f000 	lsl.w	r0, r2, r0
c0103b06:	f1c6 0e20 	rsb	lr, r6, #32
c0103b0a:	fa22 f101 	lsr.w	r1, r2, r1
c0103b0e:	4303      	orrs	r3, r0
c0103b10:	40b2      	lsls	r2, r6
c0103b12:	430b      	orrs	r3, r1
c0103b14:	4294      	cmp	r4, r2
c0103b16:	eb75 0103 	sbcs.w	r1, r5, r3
c0103b1a:	d34c      	bcc.n	c0103bb6 <__udivmoddi4+0xe6>
c0103b1c:	2001      	movs	r0, #1
c0103b1e:	1aa4      	subs	r4, r4, r2
c0103b20:	fa00 f10c 	lsl.w	r1, r0, ip
c0103b24:	eb65 0503 	sbc.w	r5, r5, r3
c0103b28:	fa20 f80e 	lsr.w	r8, r0, lr
c0103b2c:	ea41 0108 	orr.w	r1, r1, r8
c0103b30:	40b0      	lsls	r0, r6
c0103b32:	b39e      	cbz	r6, c0103b9c <__udivmoddi4+0xcc>
c0103b34:	0852      	lsrs	r2, r2, #1
c0103b36:	46b0      	mov	r8, r6
c0103b38:	ea42 72c3 	orr.w	r2, r2, r3, lsl #31
c0103b3c:	085b      	lsrs	r3, r3, #1
c0103b3e:	4294      	cmp	r4, r2
c0103b40:	eb75 0903 	sbcs.w	r9, r5, r3
c0103b44:	d33a      	bcc.n	c0103bbc <__udivmoddi4+0xec>
c0103b46:	1aa4      	subs	r4, r4, r2
c0103b48:	eb65 0503 	sbc.w	r5, r5, r3
c0103b4c:	1924      	adds	r4, r4, r4
c0103b4e:	416d      	adcs	r5, r5
c0103b50:	3401      	adds	r4, #1
c0103b52:	f145 0500 	adc.w	r5, r5, #0
c0103b56:	f1b8 0801 	subs.w	r8, r8, #1
c0103b5a:	d1f0      	bne.n	c0103b3e <__udivmoddi4+0x6e>
c0103b5c:	1900      	adds	r0, r0, r4
c0103b5e:	fa05 fe0e 	lsl.w	lr, r5, lr
c0103b62:	fa24 f406 	lsr.w	r4, r4, r6
c0103b66:	eb41 0105 	adc.w	r1, r1, r5
c0103b6a:	fa25 fc0c 	lsr.w	ip, r5, ip
c0103b6e:	ea44 040e 	orr.w	r4, r4, lr
c0103b72:	ea44 040c 	orr.w	r4, r4, ip
c0103b76:	40f5      	lsrs	r5, r6
c0103b78:	f1a6 0c20 	sub.w	ip, r6, #32
c0103b7c:	f1c6 0220 	rsb	r2, r6, #32
c0103b80:	fa05 f306 	lsl.w	r3, r5, r6
c0103b84:	fa04 fc0c 	lsl.w	ip, r4, ip
c0103b88:	ea43 030c 	orr.w	r3, r3, ip
c0103b8c:	fa24 f202 	lsr.w	r2, r4, r2
c0103b90:	fa04 f606 	lsl.w	r6, r4, r6
c0103b94:	4313      	orrs	r3, r2
c0103b96:	1b80      	subs	r0, r0, r6
c0103b98:	eb61 0103 	sbc.w	r1, r1, r3
c0103b9c:	b10f      	cbz	r7, c0103ba2 <__udivmoddi4+0xd2>
c0103b9e:	e9c7 4500 	strd	r4, r5, [r7]
c0103ba2:	e8bd 83f0 	ldmia.w	sp!, {r4, r5, r6, r7, r8, r9, pc}
c0103ba6:	fab2 f682 	clz	r6, r2
c0103baa:	3620      	adds	r6, #32
c0103bac:	e79d      	b.n	c0103aea <__udivmoddi4+0x1a>
c0103bae:	fab4 f184 	clz	r1, r4
c0103bb2:	3120      	adds	r1, #32
c0103bb4:	e79d      	b.n	c0103af2 <__udivmoddi4+0x22>
c0103bb6:	2000      	movs	r0, #0
c0103bb8:	4601      	mov	r1, r0
c0103bba:	e7ba      	b.n	c0103b32 <__udivmoddi4+0x62>
c0103bbc:	1924      	adds	r4, r4, r4
c0103bbe:	416d      	adcs	r5, r5
c0103bc0:	e7c9      	b.n	c0103b56 <__udivmoddi4+0x86>
c0103bc2:	2000      	movs	r0, #0
c0103bc4:	4601      	mov	r1, r0
c0103bc6:	e7e9      	b.n	c0103b9c <__udivmoddi4+0xcc>
c0103bc8:	0000002d 	.word	0x0000002d
c0103bcc:	004e614e 	.word	0x004e614e
c0103bd0:	00006425 	.word	0x00006425
c0103bd4:	0000002e 	.word	0x0000002e
c0103bd8:	6c756e28 	.word	0x6c756e28
c0103bdc:	0000296c 	.word	0x0000296c
c0103be0:	2e302e30 	.word	0x2e302e30
c0103be4:	00000032 	.word	0x00000032
c0103be8:	51530a0d 	.word	0x51530a0d
c0103bec:	45524955 	.word	0x45524955
c0103bf0:	4d524120 	.word	0x4d524120
c0103bf4:	0d732520 	.word	0x0d732520
c0103bf8:	0000000a 	.word	0x0000000a
c0103bfc:	756f6d41 	.word	0x756f6d41
c0103c00:	6f20746e 	.word	0x6f20746e
c0103c04:	76612066 	.word	0x76612066
c0103c08:	616c6961 	.word	0x616c6961
c0103c0c:	20656c62 	.word	0x20656c62
c0103c10:	6f6d656d 	.word	0x6f6d656d
c0103c14:	203a7972 	.word	0x203a7972
c0103c18:	25202020 	.word	0x25202020
c0103c1c:	624b2064 	.word	0x624b2064
c0103c20:	00000a0d 	.word	0x00000a0d
c0103c24:	756f6d41 	.word	0x756f6d41
c0103c28:	6f20746e 	.word	0x6f20746e
c0103c2c:	72662066 	.word	0x72662066
c0103c30:	6d206565 	.word	0x6d206565
c0103c34:	726f6d65 	.word	0x726f6d65
c0103c38:	20203a79 	.word	0x20203a79
c0103c3c:	20202020 	.word	0x20202020
c0103c40:	25202020 	.word	0x25202020
c0103c44:	624b2064 	.word	0x624b2064
c0103c48:	00000a0d 	.word	0x00000a0d
c0103c4c:	756f6d41 	.word	0x756f6d41
c0103c50:	6f20746e 	.word	0x6f20746e
c0103c54:	73752066 	.word	0x73752066
c0103c58:	6d206465 	.word	0x6d206465
c0103c5c:	726f6d65 	.word	0x726f6d65
c0103c60:	20203a79 	.word	0x20203a79
c0103c64:	20202020 	.word	0x20202020
c0103c68:	25202020 	.word	0x25202020
c0103c6c:	624b2064 	.word	0x624b2064
c0103c70:	00000a0d 	.word	0x00000a0d
c0103c74:	20515249 	.word	0x20515249
c0103c78:	0a0d6425 	.word	0x0a0d6425
c0103c7c:	00000000 	.word	0x00000000
c0103c80:	57520a0d 	.word	0x57520a0d
c0103c84:	41564e49 	.word	0x41564e49
c0103c88:	3a44494c 	.word	0x3a44494c
c0103c8c:	38302520 	.word	0x38302520
c0103c90:	000a0d78 	.word	0x000a0d78

c0103c94 <arch_pmm_framesize>:
c0103c94:	00001000                                ....

c0103c98 <platform_mem_regions_length>:
c0103c98:	00000003 00030000 00001000 0ff00000     ................

c0103ca8 <platform_mem_regions_type>:
c0103ca8:	00000003 00000001 00000001 00000000     ................
c0103cb8:	68637261 7379735f 636f6c63 6e695f6b     arch_sysclock_in
c0103cc8:	0a0d7469 00000000 68637261 7379735f     it......arch_sys
c0103cd8:	636f6c63 6e655f6b 656c6261               clock_enable...
ELF Header:
  Magic:   7f 45 4c 46 01 01 01 00 00 00 00 00 00 00 00 00 
  Class:                             ELF32
  Data:                              2's complement, little endian
  Version:                           1 (current)
  OS/ABI:                            UNIX - System V
  ABI Version:                       0
  Type:                              EXEC (Executable file)
  Machine:                           ARM
  Version:                           0x1
  Entry point address:               0xc0101a10
  Start of program headers:          52 (bytes into file)
  Start of section headers:          94624 (bytes into file)
  Flags:                             0x5000200, Version5 EABI, soft-float ABI
  Size of this header:               52 (bytes)
  Size of program headers:           32 (bytes)
  Number of program headers:         2
  Size of section headers:           40 (bytes)
  Number of section headers:         18
  Section header string table index: 17

Section Headers:
  [Nr] Name              Type            Addr     Off    Size   ES Flg Lk Inf Al
  [ 0]                   NULL            00000000 000000 000000 00      0   0  0
  [ 1] .text             PROGBITS        c0100000 010000 003ce7 00  AX  0   0 16
  [ 2] .ARM.exidx.t[...] ARM_EXIDX       c0103ce8 013ce8 000008 00  AL  1   0  4
  [ 3] .data             PROGBITS        c0103cf0 013cf0 000324 00  WA  0   0 16
  [ 4] .bss              NOBITS          c0104020 014020 03245d 00  WA  0   0 16
  [ 5] .ARM.attributes   ARM_ATTRIBUTES  00000000 014014 000031 00      0   0  1
  [ 6] .debug_line       PROGBITS        00000000 014045 0005f3 00      0   0  1
  [ 7] .debug_line_str   PROGBITS        00000000 014638 00005b 01  MS  0   0  1
  [ 8] .debug_info       PROGBITS        00000000 014693 000480 00      0   0  1
  [ 9] .debug_abbrev     PROGBITS        00000000 014b13 000185 00      0   0  1
  [10] .debug_aranges    PROGBITS        00000000 014c98 000100 00      0   0  8
  [11] .debug_str        PROGBITS        00000000 014d98 000601 01  MS  0   0  1
  [12] .debug_frame      PROGBITS        00000000 01539c 000244 00      0   0  4
  [13] .debug_loclists   PROGBITS        00000000 0155e0 000263 00      0   0  1
  [14] .debug_rnglists   PROGBITS        00000000 015843 000014 00      0   0  1
  [15] .symtab           SYMTAB          00000000 015858 000f40 10     16 113  4
  [16] .strtab           STRTAB          00000000 016798 000932 00      0   0  1
  [17] .shstrtab         STRTAB          00000000 0170ca 0000d6 00      0   0  1
Key to Flags:
  W (write), A (alloc), X (execute), M (merge), S (strings), I (info),
  L (link order), O (extra OS processing required), G (group), T (TLS),
  C (compressed), x (unknown), o (OS specific), E (exclude),
  D (mbind), y (purecode), p (processor specific)

There are no section groups in this file.

Program Headers:
  Type           Offset   VirtAddr   PhysAddr   FileSiz MemSiz  Flg Align
  LOAD           0x010000 0xc0100000 0x00100000 0x04014 0x04014 RWE 0x10000
  LOAD           0x004020 0xc0104020 0x00103cf0 0x00000 0x3245d RW  0x10000

 Section to Segment mapping:
  Segment Sections...
   00     .text .ARM.exidx.text.__udivmoddi4 .data 
   01     .bss 

There is no dynamic section in this file.

There are no relocations in this file.

Unwind section '.ARM.exidx.text.__udivmoddi4' at offset 0x13ce8 contains 1 entry:

0xc0103ad0 <__udivmoddi4>: 0x1 [cantunwind]


Symbol table '.symtab' contains 244 entries:
   Num:    Value  Size Type    Bind   Vis      Ndx Name
     0: 00000000     0 NOTYPE  LOCAL  DEFAULT  UND 
     1: c0100000     0 SECTION LOCAL  DEFAULT    1 .text
     2: c0103ce8     0 SECTION LOCAL  DEFAULT    2 .ARM.exidx.text.[...]
     3: c0103cf0     0 SECTION LOCAL  DEFAULT    3 .data
     4: c0104020     0 SECTION LOCAL  DEFAULT    4 .bss
     5: 00000000     0 SECTION LOCAL  DEFAULT    5 .ARM.attributes
     6: 00000000     0 SECTION LOCAL  DEFAULT    6 .debug_line
     7: 00000000     0 SECTION LOCAL  DEFAULT    7 .debug_line_str
     8: 00000000     0 SECTION LOCAL  DEFAULT    8 .debug_info
     9: 00000000     0 SECTION LOCAL  DEFAULT    9 .debug_abbrev
    10: 00000000     0 SECTION LOCAL  DEFAULT   10 .debug_aranges
    11: 00000000     0 SECTION LOCAL  DEFAULT   11 .debug_str
    12: 00000000     0 SECTION LOCAL  DEFAULT   12 .debug_frame
    13: 00000000     0 SECTION LOCAL  DEFAULT   13 .debug_loclists
    14: 00000000     0 SECTION LOCAL  DEFAULT   14 .debug_rnglists
    15: 00000000     0 FILE    LOCAL  DEFAULT  ABS boot.o
    16: 00000010     0 NOTYPE  LOCAL  DEFAULT  ABS CPSR_MODE_USER
    17: 00000011     0 NOTYPE  LOCAL  DEFAULT  ABS CPSR_MODE_FIQ
    18: 00000012     0 NOTYPE  LOCAL  DEFAULT  ABS CPSR_MODE_IRQ
    19: 00000013     0 NOTYPE  LOCAL  DEFAULT  ABS CPSR_MODE_SVC
    20: 00000017     0 NOTYPE  LOCAL  DEFAULT  ABS CPSR_MODE_ABORT
    21: 0000008b     0 NOTYPE  LOCAL  DEFAULT  ABS CPSR_MODE_UNDEFINED
    22: 0000001f     0 NOTYPE  LOCAL  DEFAULT  ABS CPSR_MODE_SYSTEM
    23: 00000080     0 NOTYPE  LOCAL  DEFAULT  ABS CPSR_IRQ
    24: 00000040     0 NOTYPE  LOCAL  DEFAULT  ABS CPSR_FIQ
    25: c0108000     0 NOTYPE  LOCAL  DEFAULT    4 $d
    26: c010c430     0 NOTYPE  LOCAL  DEFAULT    4 $d
    27: c0100000     0 NOTYPE  LOCAL  DEFAULT    1 $a
    28: c0101a00     0 NOTYPE  LOCAL  DEFAULT    1 ab_rwinvalid
    29: c0101a0c     0 NOTYPE  LOCAL  DEFAULT    1 irq
    30: c0104000     0 NOTYPE  LOCAL  DEFAULT    3 $d
    31: c0101a00     0 NOTYPE  LOCAL  DEFAULT    1 $a
    32: c0101a94     0 NOTYPE  LOCAL  DEFAULT    1 .highhalf
    33: c0101af4     0 NOTYPE  LOCAL  DEFAULT    1 $d
    34: 00000000     0 FILE    LOCAL  DEFAULT  ABS main.c
    35: c010c000     1 NOTYPE  LOCAL  DEFAULT    4 kernel_log_debug_out
    36: c010c000     0 NOTYPE  LOCAL  DEFAULT    4 $d
    37: c0100020     0 NOTYPE  LOCAL  DEFAULT    1 $a
    38: 00000000     0 FILE    LOCAL  DEFAULT  ABS kprintf.c
    39: c010c004     1 NOTYPE  LOCAL  DEFAULT    4 kernel_log_debug_out
    40: c010c004     0 NOTYPE  LOCAL  DEFAULT    4 $d
    41: c010c008     4 NOTYPE  LOCAL  DEFAULT    4 kernel_log_lock
    42: c0100034     0 NOTYPE  LOCAL  DEFAULT    1 $a
    43: c0100760  3528 FUNC    LOCAL  DEFAULT    1 simple_vsprintf
    44: c010016c   100 FUNC    LOCAL  DEFAULT    1 simple_outputchar
    45: c0103bc8     0 NOTYPE  LOCAL  DEFAULT    1 $d
    46: c01001d0   524 FUNC    LOCAL  DEFAULT    1 print_double_float
    47: c01003dc   400 FUNC    LOCAL  DEFAULT    1 prints
    48: c010056c   500 FUNC    LOCAL  DEFAULT    1 simple_outputi
    49: c01008c8     0 NOTYPE  LOCAL  DEFAULT    1 $d
    50: c010094c     0 NOTYPE  LOCAL  DEFAULT    1 $a
    51: c0100c00     0 NOTYPE  LOCAL  DEFAULT    1 $d
    52: c0100c84     0 NOTYPE  LOCAL  DEFAULT    1 $a
    53: c0101074     0 NOTYPE  LOCAL  DEFAULT    1 $d
    54: c01010f8     0 NOTYPE  LOCAL  DEFAULT    1 $a
    55: 00000000     0 FILE    LOCAL  DEFAULT  ABS kmalloc.c
    56: c010c414     0 NOTYPE  LOCAL  DEFAULT    4 $d
    57: c0101528     0 NOTYPE  LOCAL  DEFAULT    1 $a
    58: 00000000     0 FILE    LOCAL  DEFAULT  ABS sysclock.c
    59: c010c420     0 NOTYPE  LOCAL  DEFAULT    4 $d
    60: c0101978     0 NOTYPE  LOCAL  DEFAULT    1 $a
    61: 00000000     0 FILE    LOCAL  DEFAULT  ABS spinlock.o
    62: c0101b30     0 NOTYPE  LOCAL  DEFAULT    1 $a
    63: 00000000     0 FILE    LOCAL  DEFAULT  ABS archmain.c
    64: c0116430     1 NOTYPE  LOCAL  DEFAULT    4 kernel_log_debug_out
    65: c0116430     0 NOTYPE  LOCAL  DEFAULT    4 $d
    66: c0103be0     0 NOTYPE  LOCAL  DEFAULT    1 $d
    67: c0101b3c     0 NOTYPE  LOCAL  DEFAULT    1 $a
    68: 00000000     0 FILE    LOCAL  DEFAULT  ABS debugprint.c
    69: c0101c5c     0 NOTYPE  LOCAL  DEFAULT    1 $a
    70: 00000000     0 FILE    LOCAL  DEFAULT  ABS pmm.c
    71: c0103c94     0 NOTYPE  LOCAL  DEFAULT    1 $d
    72: c0116434     0 NOTYPE  LOCAL  DEFAULT    4 $d
    73: c0116434 0x20000 NOTYPE  LOCAL  DEFAULT    4 arch_pmm_memory_[...]
    74: c0101e88     0 NOTYPE  LOCAL  DEFAULT    1 $a
    75: c01022b4     0 NOTYPE  LOCAL  DEFAULT    1 $d
    76: c01022b8     0 NOTYPE  LOCAL  DEFAULT    1 $a
    77: 00000000     0 FILE    LOCAL  DEFAULT  ABS memory_layout.c
    78: c0104004     0 NOTYPE  LOCAL  DEFAULT    3 $d
    79: c0103c98     0 NOTYPE  LOCAL  DEFAULT    1 $d
    80: 00000000     0 FILE    LOCAL  DEFAULT  ABS vas.c
    81: c0136474     0 NOTYPE  LOCAL  DEFAULT    4 $d
    82: c0102848     0 NOTYPE  LOCAL  DEFAULT    1 $a
    83: c0102af8     0 NOTYPE  LOCAL  DEFAULT    1 $d
    84: c0102b9c     0 NOTYPE  LOCAL  DEFAULT    1 $a
    85: 00000000     0 FILE    LOCAL  DEFAULT  ABS sysclock.c
    86: c013647c     1 NOTYPE  LOCAL  DEFAULT    4 kernel_log_debug_out
    87: c013647c     0 NOTYPE  LOCAL  DEFAULT    4 $d
    88: c0103cb8     0 NOTYPE  LOCAL  DEFAULT    1 $d
    89: c0102df4     0 NOTYPE  LOCAL  DEFAULT    1 $a
    90: 00000000     0 FILE    LOCAL  DEFAULT  ABS gic.c
    91: c0102ec0     0 NOTYPE  LOCAL  DEFAULT    1 $a
    92: 00000000     0 FILE    LOCAL  DEFAULT  ABS cpu.c
    93: c010322c     0 NOTYPE  LOCAL  DEFAULT    1 $a
    94: 00000000     0 FILE    LOCAL  DEFAULT  ABS _arm_muldf3.o
    95: c01032c4     0 NOTYPE  LOCAL  DEFAULT    1 $t
    96: 00000000     0 FILE    LOCAL  DEFAULT  ABS _udivsi3.o
    97: c0103518     0 NOTYPE  LOCAL  DEFAULT    1 $t
    98: c0103518     0 NOTYPE  LOCAL  DEFAULT    1 .udivsi3_skip_di[...]
    99: 00000040     0 NOTYPE  LOCAL  DEFAULT   12 $d
   100: 00000000     0 FILE    LOCAL  DEFAULT  ABS _dvmd_tls.o
   101: c01035c4     0 NOTYPE  LOCAL  DEFAULT    1 $t
   102: 00000000     0 FILE    LOCAL  DEFAULT  ABS _arm_addsubdf3.o
   103: c01035c8     0 NOTYPE  LOCAL  DEFAULT    1 $t
   104: 00000000     0 FILE    LOCAL  DEFAULT  ABS _arm_cmpdf2.o
   105: c0103940     0 NOTYPE  LOCAL  DEFAULT    1 $t
   106: 00000000     0 FILE    LOCAL  DEFAULT  ABS _arm_fixdfsi.o
   107: c0103a50     0 NOTYPE  LOCAL  DEFAULT    1 $t
   108: 00000000     0 FILE    LOCAL  DEFAULT  ABS _aeabi_uldivmod.o
   109: c0103aa0     0 NOTYPE  LOCAL  DEFAULT    1 $t
   110: 00000000     0 FILE    LOCAL  DEFAULT  ABS libgcc2.c
   111: c0103ad0     0 NOTYPE  LOCAL  DEFAULT    1 $t
   112: c0103ce8     0 NOTYPE  LOCAL  DEFAULT    2 $d
   113: c0103a15    18 FUNC    GLOBAL HIDDEN     1 __aeabi_dcmple
   114: c0103951   122 FUNC    GLOBAL HIDDEN     1 __cmpdf2
   115: c0103951   122 FUNC    GLOBAL HIDDEN     1 __eqdf2
   116: c010d430     0 NOTYPE  GLOBAL DEFAULT    4 stack_IRQ_0_t
   117: c01038e5    90 FUNC    GLOBAL HIDDEN     1 __floatdidf
   118: c0103c94     4 OBJECT  GLOBAL DEFAULT    1 arch_pmm_framesize
   119: c01027dc    36 FUNC    GLOBAL DEFAULT    1 arch_pmm_get_ava[...]
   120: c010c418     4 OBJECT  GLOBAL DEFAULT    4 heap_size
   121: c0102e78    24 FUNC    GLOBAL DEFAULT    1 arch_sysclock_disable
   122: c0102848   360 FUNC    GLOBAL DEFAULT    1 arch_vas_init
   123: c0102e10   104 FUNC    GLOBAL DEFAULT    1 arch_sysclock_enable
   124: c0103941   138 FUNC    GLOBAL HIDDEN     1 __gtdf2
   125: c0103ce7     0 NOTYPE  GLOBAL DEFAULT    1 __etext
   126: c010c430     0 NOTYPE  GLOBAL DEFAULT    4 stack_IRQ_0_b
   127: c0112430     0 NOTYPE  GLOBAL DEFAULT    4 stack_SVC_0_t
   128: 00100000     0 NOTYPE  GLOBAL DEFAULT    1 __phys_start
   129: c0100118    84 FUNC    GLOBAL DEFAULT    1 kdebuglog_init
   130: c0102cdc   280 FUNC    GLOBAL DEFAULT    1 arch_vas_unmap
   131: c01039dd    16 FUNC    GLOBAL HIDDEN     1 __aeabi_cdcmple
   132: c0110430     0 NOTYPE  GLOBAL DEFAULT    4 stack_UND_0_t
   133: c0136478     4 OBJECT  GLOBAL DEFAULT    4 arch_vas_tmppt
   134: c0103c98    16 OBJECT  GLOBAL DEFAULT    1 platform_mem_reg[...]
   135: c01039cd    32 FUNC    GLOBAL HIDDEN     1 __aeabi_cdrcmple
   136: c0101920    88 FUNC    GLOBAL DEFAULT    1 kfree
   137: c010386d    34 FUNC    GLOBAL HIDDEN     1 __floatsidf
   138: c0103949   130 FUNC    GLOBAL HIDDEN     1 __ltdf2
   139: c0103aa1     0 FUNC    GLOBAL HIDDEN     1 __aeabi_uldivmod
   140: c010f430     0 NOTYPE  GLOBAL DEFAULT    4 stack_ABT_0_t
   141: c0103519   142 FUNC    GLOBAL HIDDEN     1 __udivsi3
   142: c01019b4    20 FUNC    GLOBAL DEFAULT    1 sysclock_disable
   143: c0108000     0 NOTYPE  GLOBAL DEFAULT    4 __bss_start__
   144: c010384d    30 FUNC    GLOBAL HIDDEN     1 __aeabi_ui2d
   145: c0101978    40 FUNC    GLOBAL DEFAULT    1 sysclock_init
   146: c0103ad1   248 FUNC    GLOBAL HIDDEN     1 __udivmoddi4
   147: c01035c9     0 FUNC    GLOBAL HIDDEN     1 __aeabi_drsub
   148: c0103254    56 FUNC    GLOBAL DEFAULT    1 cpu_enable_interrupts
   149: c0103a01    18 FUNC    GLOBAL HIDDEN     1 __aeabi_dcmplt
   150: c0103891    66 FUNC    GLOBAL HIDDEN     1 __extendsfdf2
   151: c01035d5   630 FUNC    GLOBAL HIDDEN     1 __adddf3
   152: c01024d0    44 FUNC    GLOBAL DEFAULT    1 arch_pmm_free
   153: c01032c5   596 FUNC    WEAK   HIDDEN     1 __aeabi_dmul
   154: c0136440    48 OBJECT  GLOBAL DEFAULT    4 pmm_regions
   155: c01022b8   536 FUNC    GLOBAL DEFAULT    1 arch_pmm_alloc
   156: c010384d    30 FUNC    GLOBAL HIDDEN     1 __floatunsidf
   157: c010c414     4 OBJECT  GLOBAL DEFAULT    4 heap_start
   158: c0136470     4 OBJECT  GLOBAL DEFAULT    4 pmm_lock
   159: c010328c    56 FUNC    GLOBAL DEFAULT    1 cpu_disable_inte[...]
   160: c0103000   132 FUNC    GLOBAL DEFAULT    1 gic_disable_interrupt
   161: c0101ccc   444 FUNC    GLOBAL DEFAULT    1 arch_debugprint_init
   162: c010c40c     4 OBJECT  GLOBAL DEFAULT    4 kernel_log_block[...]
   163: c010e430     0 NOTYPE  GLOBAL DEFAULT    4 stack_FIQ_0_t
   164: c0103a51    78 FUNC    GLOBAL HIDDEN     1 __fixdfsi
   165: c013643c     4 OBJECT  GLOBAL DEFAULT    4 arch_pmm_memory_[...]
   166: c0136434     4 OBJECT  GLOBAL DEFAULT    4 arch_pmm_memory_free
   167: c0102df4    28 FUNC    GLOBAL DEFAULT    1 arch_sysclock_init
   168: c01035d5   630 FUNC    GLOBAL HIDDEN     1 __aeabi_dadd
   169: c0103949   130 FUNC    GLOBAL HIDDEN     1 __ledf2
   170: c01038d5   106 FUNC    GLOBAL HIDDEN     1 __aeabi_ul2d
   171: c010c410     4 OBJECT  GLOBAL DEFAULT    4 kernel_log_block[...]
   172: c01024fc   364 FUNC    GLOBAL DEFAULT    1 arch_pmm_use
   173: c0102ec0   192 FUNC    GLOBAL DEFAULT    1 gic_init
   174: c010e430     0 NOTYPE  GLOBAL DEFAULT    4 stack_ABT_0_b
   175: c0111430     0 NOTYPE  GLOBAL DEFAULT    4 stack_SYS_0_t
   176: c0102668   372 FUNC    GLOBAL DEFAULT    1 arch_pmm_unuse
   177: c0103a3d    18 FUNC    GLOBAL HIDDEN     1 __aeabi_dcmpgt
   178: c010c00c  1024 OBJECT  GLOBAL DEFAULT    4 kernel_log_first[...]
   179: c0101c5c   112 FUNC    GLOBAL DEFAULT    1 arch_debugprint_putc
   180: c013647d     0 NOTYPE  GLOBAL DEFAULT    4 __bss_end__
   181: c0103a29    18 FUNC    GLOBAL HIDDEN     1 __aeabi_dcmpge
   182: c01035d1   634 FUNC    GLOBAL HIDDEN     1 __aeabi_dsub
   183: c0101a10     0 NOTYPE  GLOBAL DEFAULT    1 _start
   184: c0137000     0 NOTYPE  GLOBAL DEFAULT    4 __end
   185: c0104014     0 NOTYPE  GLOBAL DEFAULT    3 __edata
   186: c01038d5   106 FUNC    GLOBAL HIDDEN     1 __floatundidf
   187: c0102800    36 FUNC    GLOBAL DEFAULT    1 arch_pmm_get_free
   188: c0101b3c   196 FUNC    GLOBAL DEFAULT    1 archmain
   189: c0103164    32 FUNC    GLOBAL DEFAULT    1 gic_ack_interrupt
   190: c01019a0    20 FUNC    GLOBAL DEFAULT    1 sysclock_enable
   191: c0101528   208 FUNC    GLOBAL DEFAULT    1 kmalloc_init
   192: c0136474     4 OBJECT  GLOBAL DEFAULT    4 arch_vas_pd
   193: c0100000     0 NOTYPE  GLOBAL DEFAULT    1 cpu0_vtable
   194: c010386d    34 FUNC    GLOBAL HIDDEN     1 __aeabi_i2d
   195: 00137000     0 NOTYPE  GLOBAL DEFAULT    4 __phys_end
   196: c01035c5     2 FUNC    WEAK   HIDDEN     1 __aeabi_ldiv0
   197: c01032c5   596 FUNC    WEAK   HIDDEN     1 __muldf3
   198: c0104004    16 OBJECT  GLOBAL DEFAULT    3 platform_mem_reg[...]
   199: c01029d0   780 FUNC    GLOBAL DEFAULT    1 arch_vas_map
   200: c0101b38     0 NOTYPE  GLOBAL DEFAULT    1 arch_spinlock_unlock
   201: c0100020    20 FUNC    GLOBAL DEFAULT    1 main
   202: c0102e90    48 FUNC    GLOBAL DEFAULT    1 arch_sysclock_isr
   203: c0103519     0 FUNC    GLOBAL HIDDEN     1 __aeabi_uidiv
   204: c0101b30     0 NOTYPE  GLOBAL DEFAULT    1 arch_spinlock_init
   205: c01038e5    90 FUNC    GLOBAL HIDDEN     1 __aeabi_l2d
   206: c0136438     4 OBJECT  GLOBAL DEFAULT    4 arch_pmm_memory_used
   207: c0103184    56 FUNC    GLOBAL DEFAULT    1 gic_end_interrupt
   208: c01015f8   356 FUNC    GLOBAL DEFAULT    1 kmalloc_clean
   209: c0104000     0 NOTYPE  GLOBAL DEFAULT    3 boot_pd_c
   210: c0103951   122 FUNC    GLOBAL HIDDEN     1 __nedf2
   211: c0101c00    56 FUNC    GLOBAL DEFAULT    1 arch_irq
   212: c01019c8    56 FUNC    GLOBAL DEFAULT    1 sysclock_cb
   213: c0112430     0 NOTYPE  GLOBAL DEFAULT    4 boot_heap_start
   214: c010d430     0 NOTYPE  GLOBAL DEFAULT    4 stack_FIQ_0_b
   215: c0102f80   128 FUNC    GLOBAL DEFAULT    1 gic_enable_interrupt
   216: c0111430     0 NOTYPE  GLOBAL DEFAULT    4 stack_SVC_0_b
   217: c0100000     0 NOTYPE  GLOBAL DEFAULT    1 __stext
   218: c0101c38    36 FUNC    GLOBAL DEFAULT    1 arch_rwinvalid
   219: c0104000     0 NOTYPE  GLOBAL DEFAULT    3 __sdata
   220: c01029b0    32 FUNC    GLOBAL DEFAULT    1 arch_vas_create_pt
   221: c0102824    36 FUNC    GLOBAL DEFAULT    1 arch_pmm_get_used
   222: c0101b34     0 NOTYPE  GLOBAL DEFAULT    1 arch_spinlock_lock
   223: c0110430     0 NOTYPE  GLOBAL DEFAULT    4 stack_SYS_0_b
   224: c01035a9    26 FUNC    GLOBAL HIDDEN     1 __aeabi_uidivmod
   225: c01039ed    18 FUNC    GLOBAL HIDDEN     1 __aeabi_dcmpeq
   226: c0108000     0 NOTYPE  GLOBAL DEFAULT    4 boot_pd
   227: c01000bc    92 FUNC    GLOBAL DEFAULT    1 kprintf
   228: c010c420     8 OBJECT  GLOBAL DEFAULT    4 sysclock_jiffies
   229: c0100034   136 FUNC    GLOBAL DEFAULT    1 kputchar
   230: c010175c   452 FUNC    GLOBAL DEFAULT    1 kmalloc
   231: c010322c    40 FUNC    GLOBAL DEFAULT    1 cpu_get_periphbase
   232: c01031bc   112 FUNC    GLOBAL DEFAULT    1 gic_sgi
   233: c0103a51    78 FUNC    GLOBAL HIDDEN     1 __aeabi_d2iz
   234: c010f430     0 NOTYPE  GLOBAL DEFAULT    4 stack_UND_0_b
   235: c01035c5     2 FUNC    WEAK   HIDDEN     1 __aeabi_idiv0
   236: c0103ca8    16 OBJECT  GLOBAL DEFAULT    1 platform_mem_reg[...]
   237: c0101e88  1072 FUNC    GLOBAL DEFAULT    1 arch_pmm_init
   238: c01039dd    16 FUNC    GLOBAL HIDDEN     1 __aeabi_cdcmpeq
   239: c0103941   138 FUNC    GLOBAL HIDDEN     1 __gedf2
   240: c0103084   224 FUNC    GLOBAL DEFAULT    1 gic_set_priority
   241: c0103891    66 FUNC    GLOBAL HIDDEN     1 __aeabi_f2d
   242: c01035d1   634 FUNC    GLOBAL HIDDEN     1 __subdf3
   243: c010c41c     4 OBJECT  GLOBAL DEFAULT    4 heap_lock

No version information found in this file.
Attribute Section: aeabi
File Attributes
  Tag_CPU_name: "7-A"
  Tag_CPU_arch: v7
  Tag_CPU_arch_profile: Application
  Tag_ARM_ISA_use: Yes
  Tag_THUMB_ISA_use: Thumb-2
  Tag_ABI_PCS_wchar_t: 4
  Tag_ABI_FP_denormal: Needed
  Tag_ABI_FP_exceptions: Needed
  Tag_ABI_FP_number_model: IEEE 754
  Tag_ABI_align_needed: 8-byte
  Tag_ABI_enum_size: small
  Tag_ABI_optimization_goals: Aggressive Debug
  Tag_CPU_unaligned_access: v6
  Tag_MPextension_use: Allowed
  Tag_Virtualization_use: TrustZone
