
build/i386/output/boot/squire:     file format elf32-i386


Disassembly of section .text:

c0100000 <__stext>:
c0100000:	02 b0 ad 1b 07 00    	add    0x71bad(%eax),%dh
c0100006:	00 00                	add    %al,(%eax)
c0100008:	f7 4f 52 e4 00 00 00 	testl  $0xe4,0x52(%edi)
	...
c010001f:	00 01                	add    %al,(%ecx)
c0100021:	00 00                	add    %al,(%eax)
c0100023:	00 50 00             	add    %dl,0x0(%eax)
c0100026:	00 00                	add    %al,(%eax)
c0100028:	19 00                	sbb    %eax,(%eax)
c010002a:	00 00                	add    %al,(%eax)
c010002c:	00 00                	add    %al,(%eax)
	...

c0100030 <main>:
c0100030:	8d 4c 24 04          	lea    0x4(%esp),%ecx
c0100034:	83 e4 f0             	and    $0xfffffff0,%esp
c0100037:	ff 71 fc             	push   -0x4(%ecx)
c010003a:	55                   	push   %ebp
c010003b:	89 e5                	mov    %esp,%ebp
c010003d:	51                   	push   %ecx
c010003e:	83 ec 04             	sub    $0x4,%esp
c0100041:	e8 0e 0d 00 00       	call   c0100d54 <sysclock_init>
c0100046:	e8 2b 0d 00 00       	call   c0100d76 <sysclock_enable>
c010004b:	e8 64 0d 00 00       	call   c0100db4 <sysclock_jiffies>
c0100050:	83 ec 08             	sub    $0x8,%esp
c0100053:	50                   	push   %eax
c0100054:	68 e0 1d 10 c0       	push   $0xc0101de0
c0100059:	e8 53 00 00 00       	call   c01000b1 <kprintf>
c010005e:	83 c4 10             	add    $0x10,%esp
c0100061:	eb e8                	jmp    c010004b <main+0x1b>

c0100063 <kputchar>:
c0100063:	55                   	push   %ebp
c0100064:	89 e5                	mov    %esp,%ebp
c0100066:	83 ec 18             	sub    $0x18,%esp
c0100069:	8b 45 08             	mov    0x8(%ebp),%eax
c010006c:	88 45 f4             	mov    %al,-0xc(%ebp)
c010006f:	a1 24 54 10 c0       	mov    0xc0105424,%eax
c0100074:	3d fa 03 00 00       	cmp    $0x3fa,%eax
c0100079:	77 1a                	ja     c0100095 <kputchar+0x32>
c010007b:	8b 15 20 54 10 c0    	mov    0xc0105420,%edx
c0100081:	a1 24 54 10 c0       	mov    0xc0105424,%eax
c0100086:	8d 48 01             	lea    0x1(%eax),%ecx
c0100089:	89 0d 24 54 10 c0    	mov    %ecx,0xc0105424
c010008f:	8a 4d f4             	mov    -0xc(%ebp),%cl
c0100092:	88 0c 02             	mov    %cl,(%edx,%eax,1)
c0100095:	a0 28 54 10 c0       	mov    0xc0105428,%al
c010009a:	3c 01                	cmp    $0x1,%al
c010009c:	75 10                	jne    c01000ae <kputchar+0x4b>
c010009e:	0f be 45 f4          	movsbl -0xc(%ebp),%eax
c01000a2:	83 ec 0c             	sub    $0xc,%esp
c01000a5:	50                   	push   %eax
c01000a6:	e8 d9 0d 00 00       	call   c0100e84 <arch_debugprint_putc>
c01000ab:	83 c4 10             	add    $0x10,%esp
c01000ae:	90                   	nop
c01000af:	c9                   	leave  
c01000b0:	c3                   	ret    

c01000b1 <kprintf>:
c01000b1:	55                   	push   %ebp
c01000b2:	89 e5                	mov    %esp,%ebp
c01000b4:	83 ec 18             	sub    $0x18,%esp
c01000b7:	83 ec 0c             	sub    $0xc,%esp
c01000ba:	68 2c 54 10 c0       	push   $0xc010542c
c01000bf:	e8 9c 0d 00 00       	call   c0100e60 <arch_spinlock_lock>
c01000c4:	83 c4 10             	add    $0x10,%esp
c01000c7:	8d 45 0c             	lea    0xc(%ebp),%eax
c01000ca:	89 45 f0             	mov    %eax,-0x10(%ebp)
c01000cd:	8b 45 f0             	mov    -0x10(%ebp),%eax
c01000d0:	83 ec 04             	sub    $0x4,%esp
c01000d3:	50                   	push   %eax
c01000d4:	ff 75 08             	push   0x8(%ebp)
c01000d7:	6a 00                	push   $0x0
c01000d9:	e8 dd 02 00 00       	call   c01003bb <simple_vsprintf>
c01000de:	83 c4 10             	add    $0x10,%esp
c01000e1:	89 45 f4             	mov    %eax,-0xc(%ebp)
c01000e4:	83 ec 0c             	sub    $0xc,%esp
c01000e7:	68 2c 54 10 c0       	push   $0xc010542c
c01000ec:	e8 84 0d 00 00       	call   c0100e75 <arch_spinlock_unlock>
c01000f1:	83 c4 10             	add    $0x10,%esp
c01000f4:	8b 45 f4             	mov    -0xc(%ebp),%eax
c01000f7:	c9                   	leave  
c01000f8:	c3                   	ret    

c01000f9 <kdebuglog_init>:
c01000f9:	55                   	push   %ebp
c01000fa:	89 e5                	mov    %esp,%ebp
c01000fc:	83 ec 08             	sub    $0x8,%esp
c01000ff:	c7 05 20 54 10 c0 20 	movl   $0xc0105020,0xc0105420
c0100106:	50 10 c0 
c0100109:	c7 05 24 54 10 c0 00 	movl   $0x0,0xc0105424
c0100110:	00 00 00 
c0100113:	c6 05 28 54 10 c0 01 	movb   $0x1,0xc0105428
c010011a:	e8 9d 0d 00 00       	call   c0100ebc <arch_debugprint_init>
c010011f:	83 ec 0c             	sub    $0xc,%esp
c0100122:	68 2c 54 10 c0       	push   $0xc010542c
c0100127:	e8 24 0d 00 00       	call   c0100e50 <arch_spinlock_init>
c010012c:	83 c4 10             	add    $0x10,%esp
c010012f:	90                   	nop
c0100130:	c9                   	leave  
c0100131:	c3                   	ret    

c0100132 <simple_outputchar>:
c0100132:	55                   	push   %ebp
c0100133:	89 e5                	mov    %esp,%ebp
c0100135:	83 ec 18             	sub    $0x18,%esp
c0100138:	8b 45 0c             	mov    0xc(%ebp),%eax
c010013b:	88 45 f4             	mov    %al,-0xc(%ebp)
c010013e:	83 7d 08 00          	cmpl   $0x0,0x8(%ebp)
c0100142:	74 19                	je     c010015d <simple_outputchar+0x2b>
c0100144:	8b 45 08             	mov    0x8(%ebp),%eax
c0100147:	8b 00                	mov    (%eax),%eax
c0100149:	8a 55 f4             	mov    -0xc(%ebp),%dl
c010014c:	88 10                	mov    %dl,(%eax)
c010014e:	8b 45 08             	mov    0x8(%ebp),%eax
c0100151:	8b 00                	mov    (%eax),%eax
c0100153:	8d 50 01             	lea    0x1(%eax),%edx
c0100156:	8b 45 08             	mov    0x8(%ebp),%eax
c0100159:	89 10                	mov    %edx,(%eax)
c010015b:	eb 10                	jmp    c010016d <simple_outputchar+0x3b>
c010015d:	0f be 45 f4          	movsbl -0xc(%ebp),%eax
c0100161:	83 ec 0c             	sub    $0xc,%esp
c0100164:	50                   	push   %eax
c0100165:	e8 f9 fe ff ff       	call   c0100063 <kputchar>
c010016a:	83 c4 10             	add    $0x10,%esp
c010016d:	90                   	nop
c010016e:	c9                   	leave  
c010016f:	c3                   	ret    

c0100170 <prints>:
c0100170:	55                   	push   %ebp
c0100171:	89 e5                	mov    %esp,%ebp
c0100173:	83 ec 18             	sub    $0x18,%esp
c0100176:	c7 45 f4 00 00 00 00 	movl   $0x0,-0xc(%ebp)
c010017d:	c7 45 f0 20 00 00 00 	movl   $0x20,-0x10(%ebp)
c0100184:	83 7d 10 00          	cmpl   $0x0,0x10(%ebp)
c0100188:	7e 46                	jle    c01001d0 <prints+0x60>
c010018a:	c7 45 ec 00 00 00 00 	movl   $0x0,-0x14(%ebp)
c0100191:	8b 45 0c             	mov    0xc(%ebp),%eax
c0100194:	89 45 e8             	mov    %eax,-0x18(%ebp)
c0100197:	eb 06                	jmp    c010019f <prints+0x2f>
c0100199:	ff 45 ec             	incl   -0x14(%ebp)
c010019c:	ff 45 e8             	incl   -0x18(%ebp)
c010019f:	8b 45 e8             	mov    -0x18(%ebp),%eax
c01001a2:	8a 00                	mov    (%eax),%al
c01001a4:	84 c0                	test   %al,%al
c01001a6:	75 f1                	jne    c0100199 <prints+0x29>
c01001a8:	8b 45 ec             	mov    -0x14(%ebp),%eax
c01001ab:	3b 45 10             	cmp    0x10(%ebp),%eax
c01001ae:	7c 09                	jl     c01001b9 <prints+0x49>
c01001b0:	c7 45 10 00 00 00 00 	movl   $0x0,0x10(%ebp)
c01001b7:	eb 06                	jmp    c01001bf <prints+0x4f>
c01001b9:	8b 45 ec             	mov    -0x14(%ebp),%eax
c01001bc:	29 45 10             	sub    %eax,0x10(%ebp)
c01001bf:	8b 45 14             	mov    0x14(%ebp),%eax
c01001c2:	83 e0 01             	and    $0x1,%eax
c01001c5:	85 c0                	test   %eax,%eax
c01001c7:	74 07                	je     c01001d0 <prints+0x60>
c01001c9:	c7 45 f0 30 00 00 00 	movl   $0x30,-0x10(%ebp)
c01001d0:	8b 45 14             	mov    0x14(%ebp),%eax
c01001d3:	83 e0 02             	and    $0x2,%eax
c01001d6:	85 c0                	test   %eax,%eax
c01001d8:	75 42                	jne    c010021c <prints+0xac>
c01001da:	eb 1b                	jmp    c01001f7 <prints+0x87>
c01001dc:	8b 45 f0             	mov    -0x10(%ebp),%eax
c01001df:	0f be c0             	movsbl %al,%eax
c01001e2:	83 ec 08             	sub    $0x8,%esp
c01001e5:	50                   	push   %eax
c01001e6:	ff 75 08             	push   0x8(%ebp)
c01001e9:	e8 44 ff ff ff       	call   c0100132 <simple_outputchar>
c01001ee:	83 c4 10             	add    $0x10,%esp
c01001f1:	ff 45 f4             	incl   -0xc(%ebp)
c01001f4:	ff 4d 10             	decl   0x10(%ebp)
c01001f7:	83 7d 10 00          	cmpl   $0x0,0x10(%ebp)
c01001fb:	7f df                	jg     c01001dc <prints+0x6c>
c01001fd:	eb 1d                	jmp    c010021c <prints+0xac>
c01001ff:	8b 45 0c             	mov    0xc(%ebp),%eax
c0100202:	8a 00                	mov    (%eax),%al
c0100204:	0f be c0             	movsbl %al,%eax
c0100207:	83 ec 08             	sub    $0x8,%esp
c010020a:	50                   	push   %eax
c010020b:	ff 75 08             	push   0x8(%ebp)
c010020e:	e8 1f ff ff ff       	call   c0100132 <simple_outputchar>
c0100213:	83 c4 10             	add    $0x10,%esp
c0100216:	ff 45 f4             	incl   -0xc(%ebp)
c0100219:	ff 45 0c             	incl   0xc(%ebp)
c010021c:	8b 45 0c             	mov    0xc(%ebp),%eax
c010021f:	8a 00                	mov    (%eax),%al
c0100221:	84 c0                	test   %al,%al
c0100223:	75 da                	jne    c01001ff <prints+0x8f>
c0100225:	eb 1b                	jmp    c0100242 <prints+0xd2>
c0100227:	8b 45 f0             	mov    -0x10(%ebp),%eax
c010022a:	0f be c0             	movsbl %al,%eax
c010022d:	83 ec 08             	sub    $0x8,%esp
c0100230:	50                   	push   %eax
c0100231:	ff 75 08             	push   0x8(%ebp)
c0100234:	e8 f9 fe ff ff       	call   c0100132 <simple_outputchar>
c0100239:	83 c4 10             	add    $0x10,%esp
c010023c:	ff 45 f4             	incl   -0xc(%ebp)
c010023f:	ff 4d 10             	decl   0x10(%ebp)
c0100242:	83 7d 10 00          	cmpl   $0x0,0x10(%ebp)
c0100246:	7f df                	jg     c0100227 <prints+0xb7>
c0100248:	8b 45 f4             	mov    -0xc(%ebp),%eax
c010024b:	c9                   	leave  
c010024c:	c3                   	ret    

c010024d <simple_outputi>:
c010024d:	55                   	push   %ebp
c010024e:	89 e5                	mov    %esp,%ebp
c0100250:	57                   	push   %edi
c0100251:	56                   	push   %esi
c0100252:	53                   	push   %ebx
c0100253:	83 ec 7c             	sub    $0x7c,%esp
c0100256:	8b 45 0c             	mov    0xc(%ebp),%eax
c0100259:	89 45 80             	mov    %eax,-0x80(%ebp)
c010025c:	8b 45 10             	mov    0x10(%ebp),%eax
c010025f:	89 45 84             	mov    %eax,-0x7c(%ebp)
c0100262:	c7 45 dc 00 00 00 00 	movl   $0x0,-0x24(%ebp)
c0100269:	c7 45 d8 00 00 00 00 	movl   $0x0,-0x28(%ebp)
c0100270:	8b 45 80             	mov    -0x80(%ebp),%eax
c0100273:	8b 55 84             	mov    -0x7c(%ebp),%edx
c0100276:	89 45 d0             	mov    %eax,-0x30(%ebp)
c0100279:	89 55 d4             	mov    %edx,-0x2c(%ebp)
c010027c:	8b 45 80             	mov    -0x80(%ebp),%eax
c010027f:	80 f4 00             	xor    $0x0,%ah
c0100282:	89 c1                	mov    %eax,%ecx
c0100284:	8b 45 84             	mov    -0x7c(%ebp),%eax
c0100287:	80 f4 00             	xor    $0x0,%ah
c010028a:	89 c3                	mov    %eax,%ebx
c010028c:	89 d8                	mov    %ebx,%eax
c010028e:	09 c8                	or     %ecx,%eax
c0100290:	85 c0                	test   %eax,%eax
c0100292:	75 22                	jne    c01002b6 <simple_outputi+0x69>
c0100294:	c6 45 90 30          	movb   $0x30,-0x70(%ebp)
c0100298:	c6 45 91 00          	movb   $0x0,-0x6f(%ebp)
c010029c:	ff 75 20             	push   0x20(%ebp)
c010029f:	ff 75 1c             	push   0x1c(%ebp)
c01002a2:	8d 45 90             	lea    -0x70(%ebp),%eax
c01002a5:	50                   	push   %eax
c01002a6:	ff 75 08             	push   0x8(%ebp)
c01002a9:	e8 c2 fe ff ff       	call   c0100170 <prints>
c01002ae:	83 c4 10             	add    $0x10,%esp
c01002b1:	e9 fd 00 00 00       	jmp    c01003b3 <simple_outputi+0x166>
c01002b6:	83 7d 18 00          	cmpl   $0x0,0x18(%ebp)
c01002ba:	74 26                	je     c01002e2 <simple_outputi+0x95>
c01002bc:	83 7d 14 0a          	cmpl   $0xa,0x14(%ebp)
c01002c0:	75 20                	jne    c01002e2 <simple_outputi+0x95>
c01002c2:	83 7d 84 00          	cmpl   $0x0,-0x7c(%ebp)
c01002c6:	79 1a                	jns    c01002e2 <simple_outputi+0x95>
c01002c8:	c7 45 dc 01 00 00 00 	movl   $0x1,-0x24(%ebp)
c01002cf:	8b 45 80             	mov    -0x80(%ebp),%eax
c01002d2:	8b 55 84             	mov    -0x7c(%ebp),%edx
c01002d5:	f7 d8                	neg    %eax
c01002d7:	83 d2 00             	adc    $0x0,%edx
c01002da:	f7 da                	neg    %edx
c01002dc:	89 45 d0             	mov    %eax,-0x30(%ebp)
c01002df:	89 55 d4             	mov    %edx,-0x2c(%ebp)
c01002e2:	8d 45 90             	lea    -0x70(%ebp),%eax
c01002e5:	83 c0 3f             	add    $0x3f,%eax
c01002e8:	89 45 e4             	mov    %eax,-0x1c(%ebp)
c01002eb:	8b 45 e4             	mov    -0x1c(%ebp),%eax
c01002ee:	c6 00 00             	movb   $0x0,(%eax)
c01002f1:	eb 58                	jmp    c010034b <simple_outputi+0xfe>
c01002f3:	8b 45 14             	mov    0x14(%ebp),%eax
c01002f6:	89 c1                	mov    %eax,%ecx
c01002f8:	89 c3                	mov    %eax,%ebx
c01002fa:	c1 fb 1f             	sar    $0x1f,%ebx
c01002fd:	8b 45 d0             	mov    -0x30(%ebp),%eax
c0100300:	8b 55 d4             	mov    -0x2c(%ebp),%edx
c0100303:	53                   	push   %ebx
c0100304:	51                   	push   %ecx
c0100305:	52                   	push   %edx
c0100306:	50                   	push   %eax
c0100307:	e8 b8 19 00 00       	call   c0101cc4 <__umoddi3>
c010030c:	83 c4 10             	add    $0x10,%esp
c010030f:	89 45 e0             	mov    %eax,-0x20(%ebp)
c0100312:	83 7d e0 09          	cmpl   $0x9,-0x20(%ebp)
c0100316:	7e 09                	jle    c0100321 <simple_outputi+0xd4>
c0100318:	8b 45 24             	mov    0x24(%ebp),%eax
c010031b:	83 e8 3a             	sub    $0x3a,%eax
c010031e:	01 45 e0             	add    %eax,-0x20(%ebp)
c0100321:	8b 45 e0             	mov    -0x20(%ebp),%eax
c0100324:	83 c0 30             	add    $0x30,%eax
c0100327:	ff 4d e4             	decl   -0x1c(%ebp)
c010032a:	88 c2                	mov    %al,%dl
c010032c:	8b 45 e4             	mov    -0x1c(%ebp),%eax
c010032f:	88 10                	mov    %dl,(%eax)
c0100331:	8b 45 14             	mov    0x14(%ebp),%eax
c0100334:	99                   	cltd   
c0100335:	52                   	push   %edx
c0100336:	50                   	push   %eax
c0100337:	ff 75 d4             	push   -0x2c(%ebp)
c010033a:	ff 75 d0             	push   -0x30(%ebp)
c010033d:	e8 7a 18 00 00       	call   c0101bbc <__udivdi3>
c0100342:	83 c4 10             	add    $0x10,%esp
c0100345:	89 45 d0             	mov    %eax,-0x30(%ebp)
c0100348:	89 55 d4             	mov    %edx,-0x2c(%ebp)
c010034b:	8b 45 d0             	mov    -0x30(%ebp),%eax
c010034e:	80 f4 00             	xor    $0x0,%ah
c0100351:	89 c6                	mov    %eax,%esi
c0100353:	8b 45 d4             	mov    -0x2c(%ebp),%eax
c0100356:	80 f4 00             	xor    $0x0,%ah
c0100359:	89 c7                	mov    %eax,%edi
c010035b:	89 f8                	mov    %edi,%eax
c010035d:	09 f0                	or     %esi,%eax
c010035f:	85 c0                	test   %eax,%eax
c0100361:	75 90                	jne    c01002f3 <simple_outputi+0xa6>
c0100363:	83 7d dc 00          	cmpl   $0x0,-0x24(%ebp)
c0100367:	74 31                	je     c010039a <simple_outputi+0x14d>
c0100369:	83 7d 1c 00          	cmpl   $0x0,0x1c(%ebp)
c010036d:	74 22                	je     c0100391 <simple_outputi+0x144>
c010036f:	8b 45 20             	mov    0x20(%ebp),%eax
c0100372:	83 e0 01             	and    $0x1,%eax
c0100375:	85 c0                	test   %eax,%eax
c0100377:	74 18                	je     c0100391 <simple_outputi+0x144>
c0100379:	83 ec 08             	sub    $0x8,%esp
c010037c:	6a 2d                	push   $0x2d
c010037e:	ff 75 08             	push   0x8(%ebp)
c0100381:	e8 ac fd ff ff       	call   c0100132 <simple_outputchar>
c0100386:	83 c4 10             	add    $0x10,%esp
c0100389:	ff 45 d8             	incl   -0x28(%ebp)
c010038c:	ff 4d 1c             	decl   0x1c(%ebp)
c010038f:	eb 09                	jmp    c010039a <simple_outputi+0x14d>
c0100391:	ff 4d e4             	decl   -0x1c(%ebp)
c0100394:	8b 45 e4             	mov    -0x1c(%ebp),%eax
c0100397:	c6 00 2d             	movb   $0x2d,(%eax)
c010039a:	ff 75 20             	push   0x20(%ebp)
c010039d:	ff 75 1c             	push   0x1c(%ebp)
c01003a0:	ff 75 e4             	push   -0x1c(%ebp)
c01003a3:	ff 75 08             	push   0x8(%ebp)
c01003a6:	e8 c5 fd ff ff       	call   c0100170 <prints>
c01003ab:	83 c4 10             	add    $0x10,%esp
c01003ae:	8b 55 d8             	mov    -0x28(%ebp),%edx
c01003b1:	01 d0                	add    %edx,%eax
c01003b3:	8d 65 f4             	lea    -0xc(%ebp),%esp
c01003b6:	5b                   	pop    %ebx
c01003b7:	5e                   	pop    %esi
c01003b8:	5f                   	pop    %edi
c01003b9:	5d                   	pop    %ebp
c01003ba:	c3                   	ret    

c01003bb <simple_vsprintf>:
c01003bb:	55                   	push   %ebp
c01003bc:	89 e5                	mov    %esp,%ebp
c01003be:	83 ec 28             	sub    $0x28,%esp
c01003c1:	c7 45 ec 00 00 00 00 	movl   $0x0,-0x14(%ebp)
c01003c8:	e9 5a 06 00 00       	jmp    c0100a27 <simple_vsprintf+0x66c>
c01003cd:	8b 45 0c             	mov    0xc(%ebp),%eax
c01003d0:	8a 00                	mov    (%eax),%al
c01003d2:	3c 25                	cmp    $0x25,%al
c01003d4:	0f 85 29 06 00 00    	jne    c0100a03 <simple_vsprintf+0x648>
c01003da:	ff 45 0c             	incl   0xc(%ebp)
c01003dd:	c7 45 f0 00 00 00 00 	movl   $0x0,-0x10(%ebp)
c01003e4:	8b 45 f0             	mov    -0x10(%ebp),%eax
c01003e7:	89 45 f4             	mov    %eax,-0xc(%ebp)
c01003ea:	8b 45 0c             	mov    0xc(%ebp),%eax
c01003ed:	8a 00                	mov    (%eax),%al
c01003ef:	84 c0                	test   %al,%al
c01003f1:	0f 84 3f 06 00 00    	je     c0100a36 <simple_vsprintf+0x67b>
c01003f7:	8b 45 0c             	mov    0xc(%ebp),%eax
c01003fa:	8a 00                	mov    (%eax),%al
c01003fc:	3c 25                	cmp    $0x25,%al
c01003fe:	0f 84 02 06 00 00    	je     c0100a06 <simple_vsprintf+0x64b>
c0100404:	8b 45 0c             	mov    0xc(%ebp),%eax
c0100407:	8a 00                	mov    (%eax),%al
c0100409:	3c 2d                	cmp    $0x2d,%al
c010040b:	75 13                	jne    c0100420 <simple_vsprintf+0x65>
c010040d:	ff 45 0c             	incl   0xc(%ebp)
c0100410:	c7 45 f0 02 00 00 00 	movl   $0x2,-0x10(%ebp)
c0100417:	eb 07                	jmp    c0100420 <simple_vsprintf+0x65>
c0100419:	ff 45 0c             	incl   0xc(%ebp)
c010041c:	83 4d f0 01          	orl    $0x1,-0x10(%ebp)
c0100420:	8b 45 0c             	mov    0xc(%ebp),%eax
c0100423:	8a 00                	mov    (%eax),%al
c0100425:	3c 30                	cmp    $0x30,%al
c0100427:	74 f0                	je     c0100419 <simple_vsprintf+0x5e>
c0100429:	8b 45 0c             	mov    0xc(%ebp),%eax
c010042c:	8a 00                	mov    (%eax),%al
c010042e:	3c 2a                	cmp    $0x2a,%al
c0100430:	75 33                	jne    c0100465 <simple_vsprintf+0xaa>
c0100432:	8b 45 10             	mov    0x10(%ebp),%eax
c0100435:	8d 50 04             	lea    0x4(%eax),%edx
c0100438:	89 55 10             	mov    %edx,0x10(%ebp)
c010043b:	8b 00                	mov    (%eax),%eax
c010043d:	89 45 f4             	mov    %eax,-0xc(%ebp)
c0100440:	ff 45 0c             	incl   0xc(%ebp)
c0100443:	eb 32                	jmp    c0100477 <simple_vsprintf+0xbc>
c0100445:	8b 55 f4             	mov    -0xc(%ebp),%edx
c0100448:	89 d0                	mov    %edx,%eax
c010044a:	c1 e0 02             	shl    $0x2,%eax
c010044d:	01 d0                	add    %edx,%eax
c010044f:	01 c0                	add    %eax,%eax
c0100451:	89 45 f4             	mov    %eax,-0xc(%ebp)
c0100454:	8b 45 0c             	mov    0xc(%ebp),%eax
c0100457:	8a 00                	mov    (%eax),%al
c0100459:	0f be c0             	movsbl %al,%eax
c010045c:	83 e8 30             	sub    $0x30,%eax
c010045f:	01 45 f4             	add    %eax,-0xc(%ebp)
c0100462:	ff 45 0c             	incl   0xc(%ebp)
c0100465:	8b 45 0c             	mov    0xc(%ebp),%eax
c0100468:	8a 00                	mov    (%eax),%al
c010046a:	3c 2f                	cmp    $0x2f,%al
c010046c:	7e 09                	jle    c0100477 <simple_vsprintf+0xbc>
c010046e:	8b 45 0c             	mov    0xc(%ebp),%eax
c0100471:	8a 00                	mov    (%eax),%al
c0100473:	3c 39                	cmp    $0x39,%al
c0100475:	7e ce                	jle    c0100445 <simple_vsprintf+0x8a>
c0100477:	8b 45 0c             	mov    0xc(%ebp),%eax
c010047a:	8a 00                	mov    (%eax),%al
c010047c:	0f be c0             	movsbl %al,%eax
c010047f:	83 e8 58             	sub    $0x58,%eax
c0100482:	83 f8 20             	cmp    $0x20,%eax
c0100485:	0f 87 98 05 00 00    	ja     c0100a23 <simple_vsprintf+0x668>
c010048b:	8b 04 85 f0 1d 10 c0 	mov    -0x3fefe210(,%eax,4),%eax
c0100492:	ff e0                	jmp    *%eax
c0100494:	8b 45 10             	mov    0x10(%ebp),%eax
c0100497:	8d 50 04             	lea    0x4(%eax),%edx
c010049a:	89 55 10             	mov    %edx,0x10(%ebp)
c010049d:	8b 00                	mov    (%eax),%eax
c010049f:	89 45 e0             	mov    %eax,-0x20(%ebp)
c01004a2:	8b 45 e0             	mov    -0x20(%ebp),%eax
c01004a5:	99                   	cltd   
c01004a6:	6a 61                	push   $0x61
c01004a8:	ff 75 f0             	push   -0x10(%ebp)
c01004ab:	ff 75 f4             	push   -0xc(%ebp)
c01004ae:	6a 01                	push   $0x1
c01004b0:	6a 0a                	push   $0xa
c01004b2:	52                   	push   %edx
c01004b3:	50                   	push   %eax
c01004b4:	ff 75 08             	push   0x8(%ebp)
c01004b7:	e8 91 fd ff ff       	call   c010024d <simple_outputi>
c01004bc:	83 c4 20             	add    $0x20,%esp
c01004bf:	01 45 ec             	add    %eax,-0x14(%ebp)
c01004c2:	e9 5d 05 00 00       	jmp    c0100a24 <simple_vsprintf+0x669>
c01004c7:	8b 45 10             	mov    0x10(%ebp),%eax
c01004ca:	8d 50 04             	lea    0x4(%eax),%edx
c01004cd:	89 55 10             	mov    %edx,0x10(%ebp)
c01004d0:	8b 00                	mov    (%eax),%eax
c01004d2:	89 45 e0             	mov    %eax,-0x20(%ebp)
c01004d5:	8b 45 e0             	mov    -0x20(%ebp),%eax
c01004d8:	ba 00 00 00 00       	mov    $0x0,%edx
c01004dd:	6a 61                	push   $0x61
c01004df:	ff 75 f0             	push   -0x10(%ebp)
c01004e2:	ff 75 f4             	push   -0xc(%ebp)
c01004e5:	6a 00                	push   $0x0
c01004e7:	6a 0a                	push   $0xa
c01004e9:	52                   	push   %edx
c01004ea:	50                   	push   %eax
c01004eb:	ff 75 08             	push   0x8(%ebp)
c01004ee:	e8 5a fd ff ff       	call   c010024d <simple_outputi>
c01004f3:	83 c4 20             	add    $0x20,%esp
c01004f6:	01 45 ec             	add    %eax,-0x14(%ebp)
c01004f9:	e9 26 05 00 00       	jmp    c0100a24 <simple_vsprintf+0x669>
c01004fe:	8b 45 10             	mov    0x10(%ebp),%eax
c0100501:	8d 50 04             	lea    0x4(%eax),%edx
c0100504:	89 55 10             	mov    %edx,0x10(%ebp)
c0100507:	8b 00                	mov    (%eax),%eax
c0100509:	89 45 e0             	mov    %eax,-0x20(%ebp)
c010050c:	8b 45 e0             	mov    -0x20(%ebp),%eax
c010050f:	ba 00 00 00 00       	mov    $0x0,%edx
c0100514:	6a 61                	push   $0x61
c0100516:	ff 75 f0             	push   -0x10(%ebp)
c0100519:	ff 75 f4             	push   -0xc(%ebp)
c010051c:	6a 00                	push   $0x0
c010051e:	6a 10                	push   $0x10
c0100520:	52                   	push   %edx
c0100521:	50                   	push   %eax
c0100522:	ff 75 08             	push   0x8(%ebp)
c0100525:	e8 23 fd ff ff       	call   c010024d <simple_outputi>
c010052a:	83 c4 20             	add    $0x20,%esp
c010052d:	01 45 ec             	add    %eax,-0x14(%ebp)
c0100530:	e9 ef 04 00 00       	jmp    c0100a24 <simple_vsprintf+0x669>
c0100535:	8b 45 10             	mov    0x10(%ebp),%eax
c0100538:	8d 50 04             	lea    0x4(%eax),%edx
c010053b:	89 55 10             	mov    %edx,0x10(%ebp)
c010053e:	8b 00                	mov    (%eax),%eax
c0100540:	89 45 e0             	mov    %eax,-0x20(%ebp)
c0100543:	8b 45 e0             	mov    -0x20(%ebp),%eax
c0100546:	ba 00 00 00 00       	mov    $0x0,%edx
c010054b:	6a 41                	push   $0x41
c010054d:	ff 75 f0             	push   -0x10(%ebp)
c0100550:	ff 75 f4             	push   -0xc(%ebp)
c0100553:	6a 00                	push   $0x0
c0100555:	6a 10                	push   $0x10
c0100557:	52                   	push   %edx
c0100558:	50                   	push   %eax
c0100559:	ff 75 08             	push   0x8(%ebp)
c010055c:	e8 ec fc ff ff       	call   c010024d <simple_outputi>
c0100561:	83 c4 20             	add    $0x20,%esp
c0100564:	01 45 ec             	add    %eax,-0x14(%ebp)
c0100567:	e9 b8 04 00 00       	jmp    c0100a24 <simple_vsprintf+0x669>
c010056c:	8b 45 10             	mov    0x10(%ebp),%eax
c010056f:	8d 50 04             	lea    0x4(%eax),%edx
c0100572:	89 55 10             	mov    %edx,0x10(%ebp)
c0100575:	8b 00                	mov    (%eax),%eax
c0100577:	88 45 e0             	mov    %al,-0x20(%ebp)
c010057a:	8a 45 e0             	mov    -0x20(%ebp),%al
c010057d:	88 45 ea             	mov    %al,-0x16(%ebp)
c0100580:	c6 45 eb 00          	movb   $0x0,-0x15(%ebp)
c0100584:	ff 75 f0             	push   -0x10(%ebp)
c0100587:	ff 75 f4             	push   -0xc(%ebp)
c010058a:	8d 45 ea             	lea    -0x16(%ebp),%eax
c010058d:	50                   	push   %eax
c010058e:	ff 75 08             	push   0x8(%ebp)
c0100591:	e8 da fb ff ff       	call   c0100170 <prints>
c0100596:	83 c4 10             	add    $0x10,%esp
c0100599:	01 45 ec             	add    %eax,-0x14(%ebp)
c010059c:	e9 83 04 00 00       	jmp    c0100a24 <simple_vsprintf+0x669>
c01005a1:	8b 45 10             	mov    0x10(%ebp),%eax
c01005a4:	8d 50 04             	lea    0x4(%eax),%edx
c01005a7:	89 55 10             	mov    %edx,0x10(%ebp)
c01005aa:	8b 00                	mov    (%eax),%eax
c01005ac:	89 45 e0             	mov    %eax,-0x20(%ebp)
c01005af:	8b 45 e0             	mov    -0x20(%ebp),%eax
c01005b2:	85 c0                	test   %eax,%eax
c01005b4:	74 05                	je     c01005bb <simple_vsprintf+0x200>
c01005b6:	8b 45 e0             	mov    -0x20(%ebp),%eax
c01005b9:	eb 05                	jmp    c01005c0 <simple_vsprintf+0x205>
c01005bb:	b8 e8 1d 10 c0       	mov    $0xc0101de8,%eax
c01005c0:	ff 75 f0             	push   -0x10(%ebp)
c01005c3:	ff 75 f4             	push   -0xc(%ebp)
c01005c6:	50                   	push   %eax
c01005c7:	ff 75 08             	push   0x8(%ebp)
c01005ca:	e8 a1 fb ff ff       	call   c0100170 <prints>
c01005cf:	83 c4 10             	add    $0x10,%esp
c01005d2:	01 45 ec             	add    %eax,-0x14(%ebp)
c01005d5:	e9 4a 04 00 00       	jmp    c0100a24 <simple_vsprintf+0x669>
c01005da:	ff 45 0c             	incl   0xc(%ebp)
c01005dd:	8b 45 0c             	mov    0xc(%ebp),%eax
c01005e0:	8a 00                	mov    (%eax),%al
c01005e2:	0f be c0             	movsbl %al,%eax
c01005e5:	83 e8 58             	sub    $0x58,%eax
c01005e8:	83 f8 20             	cmp    $0x20,%eax
c01005eb:	0f 87 04 02 00 00    	ja     c01007f5 <simple_vsprintf+0x43a>
c01005f1:	8b 04 85 74 1e 10 c0 	mov    -0x3fefe18c(,%eax,4),%eax
c01005f8:	ff e0                	jmp    *%eax
c01005fa:	8b 45 10             	mov    0x10(%ebp),%eax
c01005fd:	8d 50 04             	lea    0x4(%eax),%edx
c0100600:	89 55 10             	mov    %edx,0x10(%ebp)
c0100603:	8b 00                	mov    (%eax),%eax
c0100605:	89 45 e0             	mov    %eax,-0x20(%ebp)
c0100608:	8b 45 e0             	mov    -0x20(%ebp),%eax
c010060b:	99                   	cltd   
c010060c:	6a 61                	push   $0x61
c010060e:	ff 75 f0             	push   -0x10(%ebp)
c0100611:	ff 75 f4             	push   -0xc(%ebp)
c0100614:	6a 01                	push   $0x1
c0100616:	6a 0a                	push   $0xa
c0100618:	52                   	push   %edx
c0100619:	50                   	push   %eax
c010061a:	ff 75 08             	push   0x8(%ebp)
c010061d:	e8 2b fc ff ff       	call   c010024d <simple_outputi>
c0100622:	83 c4 20             	add    $0x20,%esp
c0100625:	01 45 ec             	add    %eax,-0x14(%ebp)
c0100628:	e9 c9 01 00 00       	jmp    c01007f6 <simple_vsprintf+0x43b>
c010062d:	8b 45 10             	mov    0x10(%ebp),%eax
c0100630:	8d 50 04             	lea    0x4(%eax),%edx
c0100633:	89 55 10             	mov    %edx,0x10(%ebp)
c0100636:	8b 00                	mov    (%eax),%eax
c0100638:	89 45 e0             	mov    %eax,-0x20(%ebp)
c010063b:	8b 45 e0             	mov    -0x20(%ebp),%eax
c010063e:	ba 00 00 00 00       	mov    $0x0,%edx
c0100643:	6a 61                	push   $0x61
c0100645:	ff 75 f0             	push   -0x10(%ebp)
c0100648:	ff 75 f4             	push   -0xc(%ebp)
c010064b:	6a 00                	push   $0x0
c010064d:	6a 0a                	push   $0xa
c010064f:	52                   	push   %edx
c0100650:	50                   	push   %eax
c0100651:	ff 75 08             	push   0x8(%ebp)
c0100654:	e8 f4 fb ff ff       	call   c010024d <simple_outputi>
c0100659:	83 c4 20             	add    $0x20,%esp
c010065c:	01 45 ec             	add    %eax,-0x14(%ebp)
c010065f:	e9 92 01 00 00       	jmp    c01007f6 <simple_vsprintf+0x43b>
c0100664:	8b 45 10             	mov    0x10(%ebp),%eax
c0100667:	8d 50 04             	lea    0x4(%eax),%edx
c010066a:	89 55 10             	mov    %edx,0x10(%ebp)
c010066d:	8b 00                	mov    (%eax),%eax
c010066f:	89 45 e0             	mov    %eax,-0x20(%ebp)
c0100672:	8b 45 e0             	mov    -0x20(%ebp),%eax
c0100675:	ba 00 00 00 00       	mov    $0x0,%edx
c010067a:	6a 61                	push   $0x61
c010067c:	ff 75 f0             	push   -0x10(%ebp)
c010067f:	ff 75 f4             	push   -0xc(%ebp)
c0100682:	6a 00                	push   $0x0
c0100684:	6a 10                	push   $0x10
c0100686:	52                   	push   %edx
c0100687:	50                   	push   %eax
c0100688:	ff 75 08             	push   0x8(%ebp)
c010068b:	e8 bd fb ff ff       	call   c010024d <simple_outputi>
c0100690:	83 c4 20             	add    $0x20,%esp
c0100693:	01 45 ec             	add    %eax,-0x14(%ebp)
c0100696:	e9 5b 01 00 00       	jmp    c01007f6 <simple_vsprintf+0x43b>
c010069b:	8b 45 10             	mov    0x10(%ebp),%eax
c010069e:	8d 50 04             	lea    0x4(%eax),%edx
c01006a1:	89 55 10             	mov    %edx,0x10(%ebp)
c01006a4:	8b 00                	mov    (%eax),%eax
c01006a6:	89 45 e0             	mov    %eax,-0x20(%ebp)
c01006a9:	8b 45 e0             	mov    -0x20(%ebp),%eax
c01006ac:	ba 00 00 00 00       	mov    $0x0,%edx
c01006b1:	6a 41                	push   $0x41
c01006b3:	ff 75 f0             	push   -0x10(%ebp)
c01006b6:	ff 75 f4             	push   -0xc(%ebp)
c01006b9:	6a 00                	push   $0x0
c01006bb:	6a 10                	push   $0x10
c01006bd:	52                   	push   %edx
c01006be:	50                   	push   %eax
c01006bf:	ff 75 08             	push   0x8(%ebp)
c01006c2:	e8 86 fb ff ff       	call   c010024d <simple_outputi>
c01006c7:	83 c4 20             	add    $0x20,%esp
c01006ca:	01 45 ec             	add    %eax,-0x14(%ebp)
c01006cd:	e9 24 01 00 00       	jmp    c01007f6 <simple_vsprintf+0x43b>
c01006d2:	ff 45 0c             	incl   0xc(%ebp)
c01006d5:	8b 45 0c             	mov    0xc(%ebp),%eax
c01006d8:	8a 00                	mov    (%eax),%al
c01006da:	0f be c0             	movsbl %al,%eax
c01006dd:	83 f8 78             	cmp    $0x78,%eax
c01006e0:	0f 84 9c 00 00 00    	je     c0100782 <simple_vsprintf+0x3c7>
c01006e6:	83 f8 78             	cmp    $0x78,%eax
c01006e9:	0f 8f 03 01 00 00    	jg     c01007f2 <simple_vsprintf+0x437>
c01006ef:	83 f8 75             	cmp    $0x75,%eax
c01006f2:	74 56                	je     c010074a <simple_vsprintf+0x38f>
c01006f4:	83 f8 75             	cmp    $0x75,%eax
c01006f7:	0f 8f f5 00 00 00    	jg     c01007f2 <simple_vsprintf+0x437>
c01006fd:	83 f8 58             	cmp    $0x58,%eax
c0100700:	0f 84 b4 00 00 00    	je     c01007ba <simple_vsprintf+0x3ff>
c0100706:	83 f8 64             	cmp    $0x64,%eax
c0100709:	0f 85 e3 00 00 00    	jne    c01007f2 <simple_vsprintf+0x437>
c010070f:	8b 45 10             	mov    0x10(%ebp),%eax
c0100712:	8d 50 08             	lea    0x8(%eax),%edx
c0100715:	89 55 10             	mov    %edx,0x10(%ebp)
c0100718:	8b 50 04             	mov    0x4(%eax),%edx
c010071b:	8b 00                	mov    (%eax),%eax
c010071d:	89 45 e0             	mov    %eax,-0x20(%ebp)
c0100720:	89 55 e4             	mov    %edx,-0x1c(%ebp)
c0100723:	8b 45 e0             	mov    -0x20(%ebp),%eax
c0100726:	8b 55 e4             	mov    -0x1c(%ebp),%edx
c0100729:	6a 61                	push   $0x61
c010072b:	ff 75 f0             	push   -0x10(%ebp)
c010072e:	ff 75 f4             	push   -0xc(%ebp)
c0100731:	6a 01                	push   $0x1
c0100733:	6a 0a                	push   $0xa
c0100735:	52                   	push   %edx
c0100736:	50                   	push   %eax
c0100737:	ff 75 08             	push   0x8(%ebp)
c010073a:	e8 0e fb ff ff       	call   c010024d <simple_outputi>
c010073f:	83 c4 20             	add    $0x20,%esp
c0100742:	01 45 ec             	add    %eax,-0x14(%ebp)
c0100745:	e9 a9 00 00 00       	jmp    c01007f3 <simple_vsprintf+0x438>
c010074a:	8b 45 10             	mov    0x10(%ebp),%eax
c010074d:	8d 50 08             	lea    0x8(%eax),%edx
c0100750:	89 55 10             	mov    %edx,0x10(%ebp)
c0100753:	8b 50 04             	mov    0x4(%eax),%edx
c0100756:	8b 00                	mov    (%eax),%eax
c0100758:	89 45 e0             	mov    %eax,-0x20(%ebp)
c010075b:	89 55 e4             	mov    %edx,-0x1c(%ebp)
c010075e:	8b 45 e0             	mov    -0x20(%ebp),%eax
c0100761:	8b 55 e4             	mov    -0x1c(%ebp),%edx
c0100764:	6a 61                	push   $0x61
c0100766:	ff 75 f0             	push   -0x10(%ebp)
c0100769:	ff 75 f4             	push   -0xc(%ebp)
c010076c:	6a 00                	push   $0x0
c010076e:	6a 0a                	push   $0xa
c0100770:	52                   	push   %edx
c0100771:	50                   	push   %eax
c0100772:	ff 75 08             	push   0x8(%ebp)
c0100775:	e8 d3 fa ff ff       	call   c010024d <simple_outputi>
c010077a:	83 c4 20             	add    $0x20,%esp
c010077d:	01 45 ec             	add    %eax,-0x14(%ebp)
c0100780:	eb 71                	jmp    c01007f3 <simple_vsprintf+0x438>
c0100782:	8b 45 10             	mov    0x10(%ebp),%eax
c0100785:	8d 50 08             	lea    0x8(%eax),%edx
c0100788:	89 55 10             	mov    %edx,0x10(%ebp)
c010078b:	8b 50 04             	mov    0x4(%eax),%edx
c010078e:	8b 00                	mov    (%eax),%eax
c0100790:	89 45 e0             	mov    %eax,-0x20(%ebp)
c0100793:	89 55 e4             	mov    %edx,-0x1c(%ebp)
c0100796:	8b 45 e0             	mov    -0x20(%ebp),%eax
c0100799:	8b 55 e4             	mov    -0x1c(%ebp),%edx
c010079c:	6a 61                	push   $0x61
c010079e:	ff 75 f0             	push   -0x10(%ebp)
c01007a1:	ff 75 f4             	push   -0xc(%ebp)
c01007a4:	6a 00                	push   $0x0
c01007a6:	6a 10                	push   $0x10
c01007a8:	52                   	push   %edx
c01007a9:	50                   	push   %eax
c01007aa:	ff 75 08             	push   0x8(%ebp)
c01007ad:	e8 9b fa ff ff       	call   c010024d <simple_outputi>
c01007b2:	83 c4 20             	add    $0x20,%esp
c01007b5:	01 45 ec             	add    %eax,-0x14(%ebp)
c01007b8:	eb 39                	jmp    c01007f3 <simple_vsprintf+0x438>
c01007ba:	8b 45 10             	mov    0x10(%ebp),%eax
c01007bd:	8d 50 08             	lea    0x8(%eax),%edx
c01007c0:	89 55 10             	mov    %edx,0x10(%ebp)
c01007c3:	8b 50 04             	mov    0x4(%eax),%edx
c01007c6:	8b 00                	mov    (%eax),%eax
c01007c8:	89 45 e0             	mov    %eax,-0x20(%ebp)
c01007cb:	89 55 e4             	mov    %edx,-0x1c(%ebp)
c01007ce:	8b 45 e0             	mov    -0x20(%ebp),%eax
c01007d1:	8b 55 e4             	mov    -0x1c(%ebp),%edx
c01007d4:	6a 41                	push   $0x41
c01007d6:	ff 75 f0             	push   -0x10(%ebp)
c01007d9:	ff 75 f4             	push   -0xc(%ebp)
c01007dc:	6a 00                	push   $0x0
c01007de:	6a 10                	push   $0x10
c01007e0:	52                   	push   %edx
c01007e1:	50                   	push   %eax
c01007e2:	ff 75 08             	push   0x8(%ebp)
c01007e5:	e8 63 fa ff ff       	call   c010024d <simple_outputi>
c01007ea:	83 c4 20             	add    $0x20,%esp
c01007ed:	01 45 ec             	add    %eax,-0x14(%ebp)
c01007f0:	eb 01                	jmp    c01007f3 <simple_vsprintf+0x438>
c01007f2:	90                   	nop
c01007f3:	eb 01                	jmp    c01007f6 <simple_vsprintf+0x43b>
c01007f5:	90                   	nop
c01007f6:	e9 29 02 00 00       	jmp    c0100a24 <simple_vsprintf+0x669>
c01007fb:	ff 45 0c             	incl   0xc(%ebp)
c01007fe:	8b 45 0c             	mov    0xc(%ebp),%eax
c0100801:	8a 00                	mov    (%eax),%al
c0100803:	0f be c0             	movsbl %al,%eax
c0100806:	83 e8 58             	sub    $0x58,%eax
c0100809:	83 f8 20             	cmp    $0x20,%eax
c010080c:	0f 87 ee 01 00 00    	ja     c0100a00 <simple_vsprintf+0x645>
c0100812:	8b 04 85 f8 1e 10 c0 	mov    -0x3fefe108(,%eax,4),%eax
c0100819:	ff e0                	jmp    *%eax
c010081b:	8b 45 10             	mov    0x10(%ebp),%eax
c010081e:	8d 50 04             	lea    0x4(%eax),%edx
c0100821:	89 55 10             	mov    %edx,0x10(%ebp)
c0100824:	8b 00                	mov    (%eax),%eax
c0100826:	66 89 45 e0          	mov    %ax,-0x20(%ebp)
c010082a:	8b 4d e0             	mov    -0x20(%ebp),%ecx
c010082d:	0f bf c1             	movswl %cx,%eax
c0100830:	99                   	cltd   
c0100831:	6a 61                	push   $0x61
c0100833:	ff 75 f0             	push   -0x10(%ebp)
c0100836:	ff 75 f4             	push   -0xc(%ebp)
c0100839:	6a 01                	push   $0x1
c010083b:	6a 0a                	push   $0xa
c010083d:	52                   	push   %edx
c010083e:	50                   	push   %eax
c010083f:	ff 75 08             	push   0x8(%ebp)
c0100842:	e8 06 fa ff ff       	call   c010024d <simple_outputi>
c0100847:	83 c4 20             	add    $0x20,%esp
c010084a:	01 45 ec             	add    %eax,-0x14(%ebp)
c010084d:	e9 af 01 00 00       	jmp    c0100a01 <simple_vsprintf+0x646>
c0100852:	8b 45 10             	mov    0x10(%ebp),%eax
c0100855:	8d 50 04             	lea    0x4(%eax),%edx
c0100858:	89 55 10             	mov    %edx,0x10(%ebp)
c010085b:	8b 00                	mov    (%eax),%eax
c010085d:	66 89 45 e0          	mov    %ax,-0x20(%ebp)
c0100861:	8b 45 e0             	mov    -0x20(%ebp),%eax
c0100864:	8b 55 e4             	mov    -0x1c(%ebp),%edx
c0100867:	6a 61                	push   $0x61
c0100869:	ff 75 f0             	push   -0x10(%ebp)
c010086c:	ff 75 f4             	push   -0xc(%ebp)
c010086f:	6a 00                	push   $0x0
c0100871:	6a 0a                	push   $0xa
c0100873:	52                   	push   %edx
c0100874:	50                   	push   %eax
c0100875:	ff 75 08             	push   0x8(%ebp)
c0100878:	e8 d0 f9 ff ff       	call   c010024d <simple_outputi>
c010087d:	83 c4 20             	add    $0x20,%esp
c0100880:	01 45 ec             	add    %eax,-0x14(%ebp)
c0100883:	e9 79 01 00 00       	jmp    c0100a01 <simple_vsprintf+0x646>
c0100888:	8b 45 10             	mov    0x10(%ebp),%eax
c010088b:	8d 50 04             	lea    0x4(%eax),%edx
c010088e:	89 55 10             	mov    %edx,0x10(%ebp)
c0100891:	8b 00                	mov    (%eax),%eax
c0100893:	66 89 45 e0          	mov    %ax,-0x20(%ebp)
c0100897:	8b 45 e0             	mov    -0x20(%ebp),%eax
c010089a:	8b 55 e4             	mov    -0x1c(%ebp),%edx
c010089d:	6a 61                	push   $0x61
c010089f:	ff 75 f0             	push   -0x10(%ebp)
c01008a2:	ff 75 f4             	push   -0xc(%ebp)
c01008a5:	6a 00                	push   $0x0
c01008a7:	6a 10                	push   $0x10
c01008a9:	52                   	push   %edx
c01008aa:	50                   	push   %eax
c01008ab:	ff 75 08             	push   0x8(%ebp)
c01008ae:	e8 9a f9 ff ff       	call   c010024d <simple_outputi>
c01008b3:	83 c4 20             	add    $0x20,%esp
c01008b6:	01 45 ec             	add    %eax,-0x14(%ebp)
c01008b9:	e9 43 01 00 00       	jmp    c0100a01 <simple_vsprintf+0x646>
c01008be:	8b 45 10             	mov    0x10(%ebp),%eax
c01008c1:	8d 50 04             	lea    0x4(%eax),%edx
c01008c4:	89 55 10             	mov    %edx,0x10(%ebp)
c01008c7:	8b 00                	mov    (%eax),%eax
c01008c9:	66 89 45 e0          	mov    %ax,-0x20(%ebp)
c01008cd:	8b 45 e0             	mov    -0x20(%ebp),%eax
c01008d0:	8b 55 e4             	mov    -0x1c(%ebp),%edx
c01008d3:	6a 41                	push   $0x41
c01008d5:	ff 75 f0             	push   -0x10(%ebp)
c01008d8:	ff 75 f4             	push   -0xc(%ebp)
c01008db:	6a 00                	push   $0x0
c01008dd:	6a 10                	push   $0x10
c01008df:	52                   	push   %edx
c01008e0:	50                   	push   %eax
c01008e1:	ff 75 08             	push   0x8(%ebp)
c01008e4:	e8 64 f9 ff ff       	call   c010024d <simple_outputi>
c01008e9:	83 c4 20             	add    $0x20,%esp
c01008ec:	01 45 ec             	add    %eax,-0x14(%ebp)
c01008ef:	e9 0d 01 00 00       	jmp    c0100a01 <simple_vsprintf+0x646>
c01008f4:	ff 45 0c             	incl   0xc(%ebp)
c01008f7:	8b 45 0c             	mov    0xc(%ebp),%eax
c01008fa:	8a 00                	mov    (%eax),%al
c01008fc:	0f be c0             	movsbl %al,%eax
c01008ff:	83 f8 78             	cmp    $0x78,%eax
c0100902:	0f 84 91 00 00 00    	je     c0100999 <simple_vsprintf+0x5de>
c0100908:	83 f8 78             	cmp    $0x78,%eax
c010090b:	0f 8f ec 00 00 00    	jg     c01009fd <simple_vsprintf+0x642>
c0100911:	83 f8 75             	cmp    $0x75,%eax
c0100914:	74 51                	je     c0100967 <simple_vsprintf+0x5ac>
c0100916:	83 f8 75             	cmp    $0x75,%eax
c0100919:	0f 8f de 00 00 00    	jg     c01009fd <simple_vsprintf+0x642>
c010091f:	83 f8 58             	cmp    $0x58,%eax
c0100922:	0f 84 a3 00 00 00    	je     c01009cb <simple_vsprintf+0x610>
c0100928:	83 f8 64             	cmp    $0x64,%eax
c010092b:	0f 85 cc 00 00 00    	jne    c01009fd <simple_vsprintf+0x642>
c0100931:	8b 45 10             	mov    0x10(%ebp),%eax
c0100934:	8d 50 04             	lea    0x4(%eax),%edx
c0100937:	89 55 10             	mov    %edx,0x10(%ebp)
c010093a:	8b 00                	mov    (%eax),%eax
c010093c:	88 45 e0             	mov    %al,-0x20(%ebp)
c010093f:	8a 4d e0             	mov    -0x20(%ebp),%cl
c0100942:	0f be c1             	movsbl %cl,%eax
c0100945:	99                   	cltd   
c0100946:	6a 61                	push   $0x61
c0100948:	ff 75 f0             	push   -0x10(%ebp)
c010094b:	ff 75 f4             	push   -0xc(%ebp)
c010094e:	6a 01                	push   $0x1
c0100950:	6a 0a                	push   $0xa
c0100952:	52                   	push   %edx
c0100953:	50                   	push   %eax
c0100954:	ff 75 08             	push   0x8(%ebp)
c0100957:	e8 f1 f8 ff ff       	call   c010024d <simple_outputi>
c010095c:	83 c4 20             	add    $0x20,%esp
c010095f:	01 45 ec             	add    %eax,-0x14(%ebp)
c0100962:	e9 97 00 00 00       	jmp    c01009fe <simple_vsprintf+0x643>
c0100967:	8b 45 10             	mov    0x10(%ebp),%eax
c010096a:	8d 50 04             	lea    0x4(%eax),%edx
c010096d:	89 55 10             	mov    %edx,0x10(%ebp)
c0100970:	8b 00                	mov    (%eax),%eax
c0100972:	88 45 e0             	mov    %al,-0x20(%ebp)
c0100975:	8b 45 e0             	mov    -0x20(%ebp),%eax
c0100978:	8b 55 e4             	mov    -0x1c(%ebp),%edx
c010097b:	6a 61                	push   $0x61
c010097d:	ff 75 f0             	push   -0x10(%ebp)
c0100980:	ff 75 f4             	push   -0xc(%ebp)
c0100983:	6a 00                	push   $0x0
c0100985:	6a 0a                	push   $0xa
c0100987:	52                   	push   %edx
c0100988:	50                   	push   %eax
c0100989:	ff 75 08             	push   0x8(%ebp)
c010098c:	e8 bc f8 ff ff       	call   c010024d <simple_outputi>
c0100991:	83 c4 20             	add    $0x20,%esp
c0100994:	01 45 ec             	add    %eax,-0x14(%ebp)
c0100997:	eb 65                	jmp    c01009fe <simple_vsprintf+0x643>
c0100999:	8b 45 10             	mov    0x10(%ebp),%eax
c010099c:	8d 50 04             	lea    0x4(%eax),%edx
c010099f:	89 55 10             	mov    %edx,0x10(%ebp)
c01009a2:	8b 00                	mov    (%eax),%eax
c01009a4:	88 45 e0             	mov    %al,-0x20(%ebp)
c01009a7:	8b 45 e0             	mov    -0x20(%ebp),%eax
c01009aa:	8b 55 e4             	mov    -0x1c(%ebp),%edx
c01009ad:	6a 61                	push   $0x61
c01009af:	ff 75 f0             	push   -0x10(%ebp)
c01009b2:	ff 75 f4             	push   -0xc(%ebp)
c01009b5:	6a 00                	push   $0x0
c01009b7:	6a 10                	push   $0x10
c01009b9:	52                   	push   %edx
c01009ba:	50                   	push   %eax
c01009bb:	ff 75 08             	push   0x8(%ebp)
c01009be:	e8 8a f8 ff ff       	call   c010024d <simple_outputi>
c01009c3:	83 c4 20             	add    $0x20,%esp
c01009c6:	01 45 ec             	add    %eax,-0x14(%ebp)
c01009c9:	eb 33                	jmp    c01009fe <simple_vsprintf+0x643>
c01009cb:	8b 45 10             	mov    0x10(%ebp),%eax
c01009ce:	8d 50 04             	lea    0x4(%eax),%edx
c01009d1:	89 55 10             	mov    %edx,0x10(%ebp)
c01009d4:	8b 00                	mov    (%eax),%eax
c01009d6:	88 45 e0             	mov    %al,-0x20(%ebp)
c01009d9:	8b 45 e0             	mov    -0x20(%ebp),%eax
c01009dc:	8b 55 e4             	mov    -0x1c(%ebp),%edx
c01009df:	6a 41                	push   $0x41
c01009e1:	ff 75 f0             	push   -0x10(%ebp)
c01009e4:	ff 75 f4             	push   -0xc(%ebp)
c01009e7:	6a 00                	push   $0x0
c01009e9:	6a 10                	push   $0x10
c01009eb:	52                   	push   %edx
c01009ec:	50                   	push   %eax
c01009ed:	ff 75 08             	push   0x8(%ebp)
c01009f0:	e8 58 f8 ff ff       	call   c010024d <simple_outputi>
c01009f5:	83 c4 20             	add    $0x20,%esp
c01009f8:	01 45 ec             	add    %eax,-0x14(%ebp)
c01009fb:	eb 01                	jmp    c01009fe <simple_vsprintf+0x643>
c01009fd:	90                   	nop
c01009fe:	eb 01                	jmp    c0100a01 <simple_vsprintf+0x646>
c0100a00:	90                   	nop
c0100a01:	eb 21                	jmp    c0100a24 <simple_vsprintf+0x669>
c0100a03:	90                   	nop
c0100a04:	eb 01                	jmp    c0100a07 <simple_vsprintf+0x64c>
c0100a06:	90                   	nop
c0100a07:	8b 45 0c             	mov    0xc(%ebp),%eax
c0100a0a:	8a 00                	mov    (%eax),%al
c0100a0c:	0f be c0             	movsbl %al,%eax
c0100a0f:	83 ec 08             	sub    $0x8,%esp
c0100a12:	50                   	push   %eax
c0100a13:	ff 75 08             	push   0x8(%ebp)
c0100a16:	e8 17 f7 ff ff       	call   c0100132 <simple_outputchar>
c0100a1b:	83 c4 10             	add    $0x10,%esp
c0100a1e:	ff 45 ec             	incl   -0x14(%ebp)
c0100a21:	eb 01                	jmp    c0100a24 <simple_vsprintf+0x669>
c0100a23:	90                   	nop
c0100a24:	ff 45 0c             	incl   0xc(%ebp)
c0100a27:	8b 45 0c             	mov    0xc(%ebp),%eax
c0100a2a:	8a 00                	mov    (%eax),%al
c0100a2c:	84 c0                	test   %al,%al
c0100a2e:	0f 85 99 f9 ff ff    	jne    c01003cd <simple_vsprintf+0x12>
c0100a34:	eb 01                	jmp    c0100a37 <simple_vsprintf+0x67c>
c0100a36:	90                   	nop
c0100a37:	83 7d 08 00          	cmpl   $0x0,0x8(%ebp)
c0100a3b:	74 08                	je     c0100a45 <simple_vsprintf+0x68a>
c0100a3d:	8b 45 08             	mov    0x8(%ebp),%eax
c0100a40:	8b 00                	mov    (%eax),%eax
c0100a42:	c6 00 00             	movb   $0x0,(%eax)
c0100a45:	8b 45 ec             	mov    -0x14(%ebp),%eax
c0100a48:	c9                   	leave  
c0100a49:	c3                   	ret    

c0100a4a <khexdump>:
c0100a4a:	55                   	push   %ebp
c0100a4b:	89 e5                	mov    %esp,%ebp
c0100a4d:	83 ec 18             	sub    $0x18,%esp
c0100a50:	c7 45 f4 00 00 00 00 	movl   $0x0,-0xc(%ebp)
c0100a57:	8b 45 08             	mov    0x8(%ebp),%eax
c0100a5a:	89 45 ec             	mov    %eax,-0x14(%ebp)
c0100a5d:	83 ec 0c             	sub    $0xc,%esp
c0100a60:	68 7c 1f 10 c0       	push   $0xc0101f7c
c0100a65:	e8 47 f6 ff ff       	call   c01000b1 <kprintf>
c0100a6a:	83 c4 10             	add    $0x10,%esp
c0100a6d:	c7 45 f4 00 00 00 00 	movl   $0x0,-0xc(%ebp)
c0100a74:	e9 4d 01 00 00       	jmp    c0100bc6 <khexdump+0x17c>
c0100a79:	8b 55 f4             	mov    -0xc(%ebp),%edx
c0100a7c:	8b 45 08             	mov    0x8(%ebp),%eax
c0100a7f:	01 d0                	add    %edx,%eax
c0100a81:	83 ec 08             	sub    $0x8,%esp
c0100a84:	50                   	push   %eax
c0100a85:	68 b0 1f 10 c0       	push   $0xc0101fb0
c0100a8a:	e8 22 f6 ff ff       	call   c01000b1 <kprintf>
c0100a8f:	83 c4 10             	add    $0x10,%esp
c0100a92:	8b 45 f4             	mov    -0xc(%ebp),%eax
c0100a95:	89 45 e8             	mov    %eax,-0x18(%ebp)
c0100a98:	8b 45 f4             	mov    -0xc(%ebp),%eax
c0100a9b:	83 c0 08             	add    $0x8,%eax
c0100a9e:	89 45 f0             	mov    %eax,-0x10(%ebp)
c0100aa1:	8b 45 f0             	mov    -0x10(%ebp),%eax
c0100aa4:	39 45 0c             	cmp    %eax,0xc(%ebp)
c0100aa7:	77 29                	ja     c0100ad2 <khexdump+0x88>
c0100aa9:	8b 45 0c             	mov    0xc(%ebp),%eax
c0100aac:	89 45 f0             	mov    %eax,-0x10(%ebp)
c0100aaf:	eb 21                	jmp    c0100ad2 <khexdump+0x88>
c0100ab1:	8b 55 f4             	mov    -0xc(%ebp),%edx
c0100ab4:	8b 45 ec             	mov    -0x14(%ebp),%eax
c0100ab7:	01 d0                	add    %edx,%eax
c0100ab9:	8a 00                	mov    (%eax),%al
c0100abb:	0f b6 c0             	movzbl %al,%eax
c0100abe:	83 ec 08             	sub    $0x8,%esp
c0100ac1:	50                   	push   %eax
c0100ac2:	68 ba 1f 10 c0       	push   $0xc0101fba
c0100ac7:	e8 e5 f5 ff ff       	call   c01000b1 <kprintf>
c0100acc:	83 c4 10             	add    $0x10,%esp
c0100acf:	ff 45 f4             	incl   -0xc(%ebp)
c0100ad2:	8b 45 f4             	mov    -0xc(%ebp),%eax
c0100ad5:	3b 45 f0             	cmp    -0x10(%ebp),%eax
c0100ad8:	7c d7                	jl     c0100ab1 <khexdump+0x67>
c0100ada:	8b 45 e8             	mov    -0x18(%ebp),%eax
c0100add:	83 c0 08             	add    $0x8,%eax
c0100ae0:	39 45 0c             	cmp    %eax,0xc(%ebp)
c0100ae3:	77 20                	ja     c0100b05 <khexdump+0xbb>
c0100ae5:	eb 13                	jmp    c0100afa <khexdump+0xb0>
c0100ae7:	83 ec 0c             	sub    $0xc,%esp
c0100aea:	68 c0 1f 10 c0       	push   $0xc0101fc0
c0100aef:	e8 bd f5 ff ff       	call   c01000b1 <kprintf>
c0100af4:	83 c4 10             	add    $0x10,%esp
c0100af7:	ff 45 f4             	incl   -0xc(%ebp)
c0100afa:	8b 45 e8             	mov    -0x18(%ebp),%eax
c0100afd:	83 c0 07             	add    $0x7,%eax
c0100b00:	39 45 f4             	cmp    %eax,-0xc(%ebp)
c0100b03:	7e e2                	jle    c0100ae7 <khexdump+0x9d>
c0100b05:	83 ec 0c             	sub    $0xc,%esp
c0100b08:	68 c4 1f 10 c0       	push   $0xc0101fc4
c0100b0d:	e8 9f f5 ff ff       	call   c01000b1 <kprintf>
c0100b12:	83 c4 10             	add    $0x10,%esp
c0100b15:	8b 45 e8             	mov    -0x18(%ebp),%eax
c0100b18:	83 c0 08             	add    $0x8,%eax
c0100b1b:	89 45 f0             	mov    %eax,-0x10(%ebp)
c0100b1e:	8b 45 f0             	mov    -0x10(%ebp),%eax
c0100b21:	39 45 0c             	cmp    %eax,0xc(%ebp)
c0100b24:	77 06                	ja     c0100b2c <khexdump+0xe2>
c0100b26:	8b 45 0c             	mov    0xc(%ebp),%eax
c0100b29:	89 45 f0             	mov    %eax,-0x10(%ebp)
c0100b2c:	8b 45 e8             	mov    -0x18(%ebp),%eax
c0100b2f:	89 45 f4             	mov    %eax,-0xc(%ebp)
c0100b32:	eb 4f                	jmp    c0100b83 <khexdump+0x139>
c0100b34:	8b 55 f4             	mov    -0xc(%ebp),%edx
c0100b37:	8b 45 ec             	mov    -0x14(%ebp),%eax
c0100b3a:	01 d0                	add    %edx,%eax
c0100b3c:	8a 00                	mov    (%eax),%al
c0100b3e:	3c 1f                	cmp    $0x1f,%al
c0100b40:	76 2e                	jbe    c0100b70 <khexdump+0x126>
c0100b42:	8b 55 f4             	mov    -0xc(%ebp),%edx
c0100b45:	8b 45 ec             	mov    -0x14(%ebp),%eax
c0100b48:	01 d0                	add    %edx,%eax
c0100b4a:	8a 00                	mov    (%eax),%al
c0100b4c:	3c 7e                	cmp    $0x7e,%al
c0100b4e:	77 20                	ja     c0100b70 <khexdump+0x126>
c0100b50:	8b 55 f4             	mov    -0xc(%ebp),%edx
c0100b53:	8b 45 ec             	mov    -0x14(%ebp),%eax
c0100b56:	01 d0                	add    %edx,%eax
c0100b58:	8a 00                	mov    (%eax),%al
c0100b5a:	0f b6 c0             	movzbl %al,%eax
c0100b5d:	83 ec 08             	sub    $0x8,%esp
c0100b60:	50                   	push   %eax
c0100b61:	68 c7 1f 10 c0       	push   $0xc0101fc7
c0100b66:	e8 46 f5 ff ff       	call   c01000b1 <kprintf>
c0100b6b:	83 c4 10             	add    $0x10,%esp
c0100b6e:	eb 10                	jmp    c0100b80 <khexdump+0x136>
c0100b70:	83 ec 0c             	sub    $0xc,%esp
c0100b73:	68 ca 1f 10 c0       	push   $0xc0101fca
c0100b78:	e8 34 f5 ff ff       	call   c01000b1 <kprintf>
c0100b7d:	83 c4 10             	add    $0x10,%esp
c0100b80:	ff 45 f4             	incl   -0xc(%ebp)
c0100b83:	8b 45 f4             	mov    -0xc(%ebp),%eax
c0100b86:	3b 45 f0             	cmp    -0x10(%ebp),%eax
c0100b89:	7c a9                	jl     c0100b34 <khexdump+0xea>
c0100b8b:	8b 45 e8             	mov    -0x18(%ebp),%eax
c0100b8e:	83 c0 08             	add    $0x8,%eax
c0100b91:	39 45 0c             	cmp    %eax,0xc(%ebp)
c0100b94:	77 20                	ja     c0100bb6 <khexdump+0x16c>
c0100b96:	eb 13                	jmp    c0100bab <khexdump+0x161>
c0100b98:	83 ec 0c             	sub    $0xc,%esp
c0100b9b:	68 cc 1f 10 c0       	push   $0xc0101fcc
c0100ba0:	e8 0c f5 ff ff       	call   c01000b1 <kprintf>
c0100ba5:	83 c4 10             	add    $0x10,%esp
c0100ba8:	ff 45 f4             	incl   -0xc(%ebp)
c0100bab:	8b 45 e8             	mov    -0x18(%ebp),%eax
c0100bae:	83 c0 07             	add    $0x7,%eax
c0100bb1:	39 45 f4             	cmp    %eax,-0xc(%ebp)
c0100bb4:	7e e2                	jle    c0100b98 <khexdump+0x14e>
c0100bb6:	83 ec 0c             	sub    $0xc,%esp
c0100bb9:	68 ce 1f 10 c0       	push   $0xc0101fce
c0100bbe:	e8 ee f4 ff ff       	call   c01000b1 <kprintf>
c0100bc3:	83 c4 10             	add    $0x10,%esp
c0100bc6:	8b 45 f4             	mov    -0xc(%ebp),%eax
c0100bc9:	39 45 0c             	cmp    %eax,0xc(%ebp)
c0100bcc:	0f 87 a7 fe ff ff    	ja     c0100a79 <khexdump+0x2f>
c0100bd2:	83 ec 0c             	sub    $0xc,%esp
c0100bd5:	68 7c 1f 10 c0       	push   $0xc0101f7c
c0100bda:	e8 d2 f4 ff ff       	call   c01000b1 <kprintf>
c0100bdf:	83 c4 10             	add    $0x10,%esp
c0100be2:	90                   	nop
c0100be3:	c9                   	leave  
c0100be4:	c3                   	ret    
c0100be5:	66 90                	xchg   %ax,%ax
c0100be7:	90                   	nop

c0100be8 <kmalloc_init>:
c0100be8:	55                   	push   %ebp
c0100be9:	89 e5                	mov    %esp,%ebp
c0100beb:	8b 45 08             	mov    0x8(%ebp),%eax
c0100bee:	8b 4d 0c             	mov    0xc(%ebp),%ecx
c0100bf1:	a3 38 54 10 c0       	mov    %eax,0xc0105438
c0100bf6:	c7 00 00 00 00 00    	movl   $0x0,(%eax)
c0100bfc:	8d 51 ec             	lea    -0x14(%ecx),%edx
c0100bff:	89 50 04             	mov    %edx,0x4(%eax)
c0100c02:	89 50 08             	mov    %edx,0x8(%eax)
c0100c05:	89 0d 34 54 10 c0    	mov    %ecx,0xc0105434
c0100c0b:	89 50 0c             	mov    %edx,0xc(%eax)
c0100c0e:	c7 40 10 02 00 00 00 	movl   $0x2,0x10(%eax)
c0100c15:	c7 45 08 30 54 10 c0 	movl   $0xc0105430,0x8(%ebp)
c0100c1c:	5d                   	pop    %ebp
c0100c1d:	e9 2e 02 00 00       	jmp    c0100e50 <arch_spinlock_init>
c0100c22:	66 90                	xchg   %ax,%ax

c0100c24 <kmalloc_clean>:
c0100c24:	a1 38 54 10 c0       	mov    0xc0105438,%eax
c0100c29:	85 c0                	test   %eax,%eax
c0100c2b:	74 53                	je     c0100c80 <kmalloc_clean+0x5c>
c0100c2d:	55                   	push   %ebp
c0100c2e:	89 e5                	mov    %esp,%ebp
c0100c30:	57                   	push   %edi
c0100c31:	56                   	push   %esi
c0100c32:	53                   	push   %ebx
c0100c33:	8d 50 0c             	lea    0xc(%eax),%edx
c0100c36:	31 ff                	xor    %edi,%edi
c0100c38:	31 c9                	xor    %ecx,%ecx
c0100c3a:	8b 5a 04             	mov    0x4(%edx),%ebx
c0100c3d:	f6 c3 01             	test   $0x1,%bl
c0100c40:	74 16                	je     c0100c58 <kmalloc_clean+0x34>
c0100c42:	31 c9                	xor    %ecx,%ecx
c0100c44:	83 e3 02             	and    $0x2,%ebx
c0100c47:	74 2e                	je     c0100c77 <kmalloc_clean+0x53>
c0100c49:	89 78 04             	mov    %edi,0x4(%eax)
c0100c4c:	8b 00                	mov    (%eax),%eax
c0100c4e:	85 c0                	test   %eax,%eax
c0100c50:	75 e1                	jne    c0100c33 <kmalloc_clean+0xf>
c0100c52:	5b                   	pop    %ebx
c0100c53:	5e                   	pop    %esi
c0100c54:	5f                   	pop    %edi
c0100c55:	5d                   	pop    %ebp
c0100c56:	c3                   	ret    
c0100c57:	90                   	nop
c0100c58:	8b 32                	mov    (%edx),%esi
c0100c5a:	85 c9                	test   %ecx,%ecx
c0100c5c:	74 0c                	je     c0100c6a <kmalloc_clean+0x46>
c0100c5e:	03 31                	add    (%ecx),%esi
c0100c60:	83 c6 08             	add    $0x8,%esi
c0100c63:	89 31                	mov    %esi,(%ecx)
c0100c65:	89 59 04             	mov    %ebx,0x4(%ecx)
c0100c68:	89 ca                	mov    %ecx,%edx
c0100c6a:	39 f7                	cmp    %esi,%edi
c0100c6c:	73 02                	jae    c0100c70 <kmalloc_clean+0x4c>
c0100c6e:	89 f7                	mov    %esi,%edi
c0100c70:	89 d1                	mov    %edx,%ecx
c0100c72:	83 e3 02             	and    $0x2,%ebx
c0100c75:	75 d2                	jne    c0100c49 <kmalloc_clean+0x25>
c0100c77:	8b 1a                	mov    (%edx),%ebx
c0100c79:	8d 54 1a 08          	lea    0x8(%edx,%ebx,1),%edx
c0100c7d:	eb bb                	jmp    c0100c3a <kmalloc_clean+0x16>
c0100c7f:	90                   	nop
c0100c80:	c3                   	ret    
c0100c81:	8d 76 00             	lea    0x0(%esi),%esi

c0100c84 <kmalloc>:
c0100c84:	55                   	push   %ebp
c0100c85:	89 e5                	mov    %esp,%ebp
c0100c87:	56                   	push   %esi
c0100c88:	53                   	push   %ebx
c0100c89:	8b 75 08             	mov    0x8(%ebp),%esi
c0100c8c:	83 ec 0c             	sub    $0xc,%esp
c0100c8f:	68 30 54 10 c0       	push   $0xc0105430
c0100c94:	e8 c7 01 00 00       	call   c0100e60 <arch_spinlock_lock>
c0100c99:	a1 38 54 10 c0       	mov    0xc0105438,%eax
c0100c9e:	83 c4 10             	add    $0x10,%esp
c0100ca1:	85 c0                	test   %eax,%eax
c0100ca3:	74 0b                	je     c0100cb0 <kmalloc+0x2c>
c0100ca5:	39 70 04             	cmp    %esi,0x4(%eax)
c0100ca8:	73 22                	jae    c0100ccc <kmalloc+0x48>
c0100caa:	8b 00                	mov    (%eax),%eax
c0100cac:	85 c0                	test   %eax,%eax
c0100cae:	75 f5                	jne    c0100ca5 <kmalloc+0x21>
c0100cb0:	83 ec 0c             	sub    $0xc,%esp
c0100cb3:	68 30 54 10 c0       	push   $0xc0105430
c0100cb8:	e8 b8 01 00 00       	call   c0100e75 <arch_spinlock_unlock>
c0100cbd:	83 c4 10             	add    $0x10,%esp
c0100cc0:	31 c0                	xor    %eax,%eax
c0100cc2:	8d 65 f8             	lea    -0x8(%ebp),%esp
c0100cc5:	5b                   	pop    %ebx
c0100cc6:	5e                   	pop    %esi
c0100cc7:	5d                   	pop    %ebp
c0100cc8:	c3                   	ret    
c0100cc9:	8d 76 00             	lea    0x0(%esi),%esi
c0100ccc:	8d 58 0c             	lea    0xc(%eax),%ebx
c0100ccf:	8b 53 04             	mov    0x4(%ebx),%edx
c0100cd2:	f6 c2 01             	test   $0x1,%dl
c0100cd5:	75 06                	jne    c0100cdd <kmalloc+0x59>
c0100cd7:	8b 0b                	mov    (%ebx),%ecx
c0100cd9:	39 f1                	cmp    %esi,%ecx
c0100cdb:	73 0f                	jae    c0100cec <kmalloc+0x68>
c0100cdd:	83 e2 02             	and    $0x2,%edx
c0100ce0:	75 c8                	jne    c0100caa <kmalloc+0x26>
c0100ce2:	8b 13                	mov    (%ebx),%edx
c0100ce4:	8d 5c 13 08          	lea    0x8(%ebx,%edx,1),%ebx
c0100ce8:	eb e5                	jmp    c0100ccf <kmalloc+0x4b>
c0100cea:	66 90                	xchg   %ax,%ax
c0100cec:	29 f1                	sub    %esi,%ecx
c0100cee:	8d 41 f8             	lea    -0x8(%ecx),%eax
c0100cf1:	83 f8 08             	cmp    $0x8,%eax
c0100cf4:	7e 0e                	jle    c0100d04 <kmalloc+0x80>
c0100cf6:	8d 4c 33 08          	lea    0x8(%ebx,%esi,1),%ecx
c0100cfa:	89 51 04             	mov    %edx,0x4(%ecx)
c0100cfd:	83 e2 fd             	and    $0xfffffffd,%edx
c0100d00:	89 01                	mov    %eax,(%ecx)
c0100d02:	89 33                	mov    %esi,(%ebx)
c0100d04:	83 ca 01             	or     $0x1,%edx
c0100d07:	89 53 04             	mov    %edx,0x4(%ebx)
c0100d0a:	e8 15 ff ff ff       	call   c0100c24 <kmalloc_clean>
c0100d0f:	83 ec 0c             	sub    $0xc,%esp
c0100d12:	68 30 54 10 c0       	push   $0xc0105430
c0100d17:	e8 59 01 00 00       	call   c0100e75 <arch_spinlock_unlock>
c0100d1c:	8d 43 08             	lea    0x8(%ebx),%eax
c0100d1f:	83 c4 10             	add    $0x10,%esp
c0100d22:	eb 9e                	jmp    c0100cc2 <kmalloc+0x3e>

c0100d24 <kfree>:
c0100d24:	55                   	push   %ebp
c0100d25:	89 e5                	mov    %esp,%ebp
c0100d27:	53                   	push   %ebx
c0100d28:	83 ec 10             	sub    $0x10,%esp
c0100d2b:	8b 5d 08             	mov    0x8(%ebp),%ebx
c0100d2e:	68 30 54 10 c0       	push   $0xc0105430
c0100d33:	e8 28 01 00 00       	call   c0100e60 <arch_spinlock_lock>
c0100d38:	83 63 fc fe          	andl   $0xfffffffe,-0x4(%ebx)
c0100d3c:	e8 e3 fe ff ff       	call   c0100c24 <kmalloc_clean>
c0100d41:	83 c4 10             	add    $0x10,%esp
c0100d44:	c7 45 08 30 54 10 c0 	movl   $0xc0105430,0x8(%ebp)
c0100d4b:	8b 5d fc             	mov    -0x4(%ebp),%ebx
c0100d4e:	c9                   	leave  
c0100d4f:	e9 21 01 00 00       	jmp    c0100e75 <arch_spinlock_unlock>

c0100d54 <sysclock_init>:
c0100d54:	55                   	push   %ebp
c0100d55:	89 e5                	mov    %esp,%ebp
c0100d57:	83 ec 08             	sub    $0x8,%esp
c0100d5a:	c7 05 40 54 10 c0 00 	movl   $0x0,0xc0105440
c0100d61:	00 00 00 
c0100d64:	c7 05 44 54 10 c0 00 	movl   $0x0,0xc0105444
c0100d6b:	00 00 00 
c0100d6e:	e8 75 0b 00 00       	call   c01018e8 <arch_sysclock_init>
c0100d73:	90                   	nop
c0100d74:	c9                   	leave  
c0100d75:	c3                   	ret    

c0100d76 <sysclock_enable>:
c0100d76:	55                   	push   %ebp
c0100d77:	89 e5                	mov    %esp,%ebp
c0100d79:	83 ec 08             	sub    $0x8,%esp
c0100d7c:	e8 b0 0b 00 00       	call   c0101931 <arch_sysclock_enable>
c0100d81:	90                   	nop
c0100d82:	c9                   	leave  
c0100d83:	c3                   	ret    

c0100d84 <sysclock_disable>:
c0100d84:	55                   	push   %ebp
c0100d85:	89 e5                	mov    %esp,%ebp
c0100d87:	83 ec 08             	sub    $0x8,%esp
c0100d8a:	e8 bf 0b 00 00       	call   c010194e <arch_sysclock_disable>
c0100d8f:	90                   	nop
c0100d90:	c9                   	leave  
c0100d91:	c3                   	ret    

c0100d92 <sysclock_cb>:
c0100d92:	55                   	push   %ebp
c0100d93:	89 e5                	mov    %esp,%ebp
c0100d95:	a1 40 54 10 c0       	mov    0xc0105440,%eax
c0100d9a:	8b 15 44 54 10 c0    	mov    0xc0105444,%edx
c0100da0:	83 c0 01             	add    $0x1,%eax
c0100da3:	83 d2 00             	adc    $0x0,%edx
c0100da6:	a3 40 54 10 c0       	mov    %eax,0xc0105440
c0100dab:	89 15 44 54 10 c0    	mov    %edx,0xc0105444
c0100db1:	90                   	nop
c0100db2:	5d                   	pop    %ebp
c0100db3:	c3                   	ret    

c0100db4 <sysclock_jiffies>:
c0100db4:	55                   	push   %ebp
c0100db5:	89 e5                	mov    %esp,%ebp
c0100db7:	a1 40 54 10 c0       	mov    0xc0105440,%eax
c0100dbc:	8b 15 44 54 10 c0    	mov    0xc0105444,%edx
c0100dc2:	5d                   	pop    %ebp
c0100dc3:	c3                   	ret    

c0100dc4 <_start>:
c0100dc4:	fa                   	cli    
c0100dc5:	3d 02 b0 ad 2b       	cmp    $0x2badb002,%eax
c0100dca:	75 7d                	jne    c0100e49 <hang>
c0100dcc:	b8 00 30 10 00       	mov    $0x103000,%eax
c0100dd1:	0f 22 d8             	mov    %eax,%cr3
c0100dd4:	0f 20 e0             	mov    %cr4,%eax
c0100dd7:	83 c8 10             	or     $0x10,%eax
c0100dda:	0f 22 e0             	mov    %eax,%cr4
c0100ddd:	0f 20 c0             	mov    %cr0,%eax
c0100de0:	0d 01 00 00 80       	or     $0x80000001,%eax
c0100de5:	0f 22 c0             	mov    %eax,%cr0
c0100de8:	8d 05 f0 0d 10 c0    	lea    0xc0100df0,%eax
c0100dee:	ff e0                	jmp    *%eax

c0100df0 <_start.high>:
c0100df0:	c7 05 00 30 10 c0 00 	movl   $0x0,0xc0103000
c0100df7:	00 00 00 
c0100dfa:	b8 00 30 10 00       	mov    $0x103000,%eax
c0100dff:	25 00 f0 ff ff       	and    $0xfffff000,%eax
c0100e04:	83 c8 03             	or     $0x3,%eax
c0100e07:	a3 fc 3f 10 c0       	mov    %eax,0xc0103ffc
c0100e0c:	0f 01 3d 00 00 00 00 	invlpg 0x0
c0100e13:	bc 00 70 10 c0       	mov    $0xc0107000,%esp
c0100e18:	89 e5                	mov    %esp,%ebp
c0100e1a:	b8 30 40 10 c0       	mov    $0xc0104030,%eax
c0100e1f:	0f 01 10             	lgdtl  (%eax)
c0100e22:	66 b8 10 00          	mov    $0x10,%ax
c0100e26:	8e d8                	mov    %eax,%ds
c0100e28:	8e c0                	mov    %eax,%es
c0100e2a:	8e e0                	mov    %eax,%fs
c0100e2c:	8e e8                	mov    %eax,%gs
c0100e2e:	8e d0                	mov    %eax,%ss
c0100e30:	ea 37 0e 10 c0 08 00 	ljmp   $0x8,$0xc0100e37

c0100e37 <_start.loadcs>:
c0100e37:	b8 00 70 10 c0       	mov    $0xc0107000,%eax
c0100e3c:	50                   	push   %eax
c0100e3d:	81 c3 00 00 00 c0    	add    $0xc0000000,%ebx
c0100e43:	53                   	push   %ebx
c0100e44:	e8 e4 00 00 00       	call   c0100f2d <archmain>

c0100e49 <hang>:
c0100e49:	fa                   	cli    
c0100e4a:	f4                   	hlt    
c0100e4b:	eb fc                	jmp    c0100e49 <hang>
c0100e4d:	66 90                	xchg   %ax,%ax
c0100e4f:	90                   	nop

c0100e50 <arch_spinlock_init>:
c0100e50:	55                   	push   %ebp
c0100e51:	89 e5                	mov    %esp,%ebp
c0100e53:	8b 55 08             	mov    0x8(%ebp),%edx
c0100e56:	c7 02 00 00 00 00    	movl   $0x0,(%edx)
c0100e5c:	89 ec                	mov    %ebp,%esp
c0100e5e:	5d                   	pop    %ebp
c0100e5f:	c3                   	ret    

c0100e60 <arch_spinlock_lock>:
c0100e60:	55                   	push   %ebp
c0100e61:	89 e5                	mov    %esp,%ebp
c0100e63:	8b 55 08             	mov    0x8(%ebp),%edx

c0100e66 <arch_spinlock_lock.retry>:
c0100e66:	b8 01 00 00 00       	mov    $0x1,%eax
c0100e6b:	87 02                	xchg   %eax,(%edx)
c0100e6d:	85 c0                	test   %eax,%eax
c0100e6f:	75 f5                	jne    c0100e66 <arch_spinlock_lock.retry>
c0100e71:	89 ec                	mov    %ebp,%esp
c0100e73:	5d                   	pop    %ebp
c0100e74:	c3                   	ret    

c0100e75 <arch_spinlock_unlock>:
c0100e75:	55                   	push   %ebp
c0100e76:	89 e5                	mov    %esp,%ebp
c0100e78:	8b 55 08             	mov    0x8(%ebp),%edx
c0100e7b:	31 c0                	xor    %eax,%eax
c0100e7d:	87 02                	xchg   %eax,(%edx)
c0100e7f:	89 ec                	mov    %ebp,%esp
c0100e81:	5d                   	pop    %ebp
c0100e82:	c3                   	ret    
c0100e83:	90                   	nop

c0100e84 <arch_debugprint_putc>:
c0100e84:	55                   	push   %ebp
c0100e85:	89 e5                	mov    %esp,%ebp
c0100e87:	53                   	push   %ebx
c0100e88:	50                   	push   %eax
c0100e89:	8b 5d 08             	mov    0x8(%ebp),%ebx
c0100e8c:	83 ec 0c             	sub    $0xc,%esp
c0100e8f:	68 fd 03 00 00       	push   $0x3fd
c0100e94:	e8 8b 01 00 00       	call   c0101024 <io_inb>
c0100e99:	83 c4 10             	add    $0x10,%esp
c0100e9c:	84 c0                	test   %al,%al
c0100e9e:	74 ec                	je     c0100e8c <arch_debugprint_putc+0x8>
c0100ea0:	83 ec 08             	sub    $0x8,%esp
c0100ea3:	0f b6 db             	movzbl %bl,%ebx
c0100ea6:	53                   	push   %ebx
c0100ea7:	68 f8 03 00 00       	push   $0x3f8
c0100eac:	e8 4b 01 00 00       	call   c0100ffc <io_outb>
c0100eb1:	83 c4 10             	add    $0x10,%esp
c0100eb4:	8b 5d fc             	mov    -0x4(%ebp),%ebx
c0100eb7:	c9                   	leave  
c0100eb8:	c3                   	ret    
c0100eb9:	8d 76 00             	lea    0x0(%esi),%esi

c0100ebc <arch_debugprint_init>:
c0100ebc:	55                   	push   %ebp
c0100ebd:	89 e5                	mov    %esp,%ebp
c0100ebf:	83 ec 10             	sub    $0x10,%esp
c0100ec2:	6a 0a                	push   $0xa
c0100ec4:	68 f9 03 00 00       	push   $0x3f9
c0100ec9:	e8 2e 01 00 00       	call   c0100ffc <io_outb>
c0100ece:	58                   	pop    %eax
c0100ecf:	5a                   	pop    %edx
c0100ed0:	68 80 00 00 00       	push   $0x80
c0100ed5:	68 fb 03 00 00       	push   $0x3fb
c0100eda:	e8 1d 01 00 00       	call   c0100ffc <io_outb>
c0100edf:	59                   	pop    %ecx
c0100ee0:	58                   	pop    %eax
c0100ee1:	6a 03                	push   $0x3
c0100ee3:	68 f8 03 00 00       	push   $0x3f8
c0100ee8:	e8 0f 01 00 00       	call   c0100ffc <io_outb>
c0100eed:	58                   	pop    %eax
c0100eee:	5a                   	pop    %edx
c0100eef:	6a 00                	push   $0x0
c0100ef1:	68 fa 03 00 00       	push   $0x3fa
c0100ef6:	e8 01 01 00 00       	call   c0100ffc <io_outb>
c0100efb:	59                   	pop    %ecx
c0100efc:	58                   	pop    %eax
c0100efd:	6a 03                	push   $0x3
c0100eff:	68 fb 03 00 00       	push   $0x3fb
c0100f04:	e8 f3 00 00 00       	call   c0100ffc <io_outb>
c0100f09:	58                   	pop    %eax
c0100f0a:	5a                   	pop    %edx
c0100f0b:	68 c7 00 00 00       	push   $0xc7
c0100f10:	68 fa 03 00 00       	push   $0x3fa
c0100f15:	e8 e2 00 00 00       	call   c0100ffc <io_outb>
c0100f1a:	59                   	pop    %ecx
c0100f1b:	58                   	pop    %eax
c0100f1c:	6a 0b                	push   $0xb
c0100f1e:	68 fc 03 00 00       	push   $0x3fc
c0100f23:	e8 d4 00 00 00       	call   c0100ffc <io_outb>
c0100f28:	83 c4 10             	add    $0x10,%esp
c0100f2b:	c9                   	leave  
c0100f2c:	c3                   	ret    

c0100f2d <archmain>:
c0100f2d:	55                   	push   %ebp
c0100f2e:	89 e5                	mov    %esp,%ebp
c0100f30:	83 ec 18             	sub    $0x18,%esp
c0100f33:	e8 c1 f1 ff ff       	call   c01000f9 <kdebuglog_init>
c0100f38:	83 ec 08             	sub    $0x8,%esp
c0100f3b:	68 d4 1f 10 c0       	push   $0xc0101fd4
c0100f40:	68 da 1f 10 c0       	push   $0xc0101fda
c0100f45:	e8 67 f1 ff ff       	call   c01000b1 <kprintf>
c0100f4a:	83 c4 10             	add    $0x10,%esp
c0100f4d:	83 ec 08             	sub    $0x8,%esp
c0100f50:	68 00 40 00 00       	push   $0x4000
c0100f55:	ff 75 0c             	push   0xc(%ebp)
c0100f58:	e8 8b fc ff ff       	call   c0100be8 <kmalloc_init>
c0100f5d:	83 c4 10             	add    $0x10,%esp
c0100f60:	83 ec 0c             	sub    $0xc,%esp
c0100f63:	ff 75 08             	push   0x8(%ebp)
c0100f66:	e8 da 00 00 00       	call   c0101045 <arch_pmm_init>
c0100f6b:	83 c4 10             	add    $0x10,%esp
c0100f6e:	e8 8a 07 00 00       	call   c01016fd <arch_vas_init>
c0100f73:	e8 fa 06 00 00       	call   c0101672 <arch_pmm_get_available>
c0100f78:	c1 e8 0a             	shr    $0xa,%eax
c0100f7b:	83 ec 08             	sub    $0x8,%esp
c0100f7e:	50                   	push   %eax
c0100f7f:	68 f0 1f 10 c0       	push   $0xc0101ff0
c0100f84:	e8 28 f1 ff ff       	call   c01000b1 <kprintf>
c0100f89:	83 c4 10             	add    $0x10,%esp
c0100f8c:	e8 eb 06 00 00       	call   c010167c <arch_pmm_get_free>
c0100f91:	c1 e8 0a             	shr    $0xa,%eax
c0100f94:	83 ec 08             	sub    $0x8,%esp
c0100f97:	50                   	push   %eax
c0100f98:	68 18 20 10 c0       	push   $0xc0102018
c0100f9d:	e8 0f f1 ff ff       	call   c01000b1 <kprintf>
c0100fa2:	83 c4 10             	add    $0x10,%esp
c0100fa5:	e8 dc 06 00 00       	call   c0101686 <arch_pmm_get_used>
c0100faa:	c1 e8 0a             	shr    $0xa,%eax
c0100fad:	83 ec 08             	sub    $0x8,%esp
c0100fb0:	50                   	push   %eax
c0100fb1:	68 40 20 10 c0       	push   $0xc0102040
c0100fb6:	e8 f6 f0 ff ff       	call   c01000b1 <kprintf>
c0100fbb:	83 c4 10             	add    $0x10,%esp
c0100fbe:	e8 f6 0a 00 00       	call   c0101ab9 <idt_init>
c0100fc3:	e8 c5 09 00 00       	call   c010198d <pic_init>
c0100fc8:	e8 e0 0b 00 00       	call   c0101bad <cpu_enable_interrupts>
c0100fcd:	c7 45 f4 67 20 10 c0 	movl   $0xc0102067,-0xc(%ebp)
c0100fd4:	83 ec 08             	sub    $0x8,%esp
c0100fd7:	6a 1e                	push   $0x1e
c0100fd9:	ff 75 f4             	push   -0xc(%ebp)
c0100fdc:	e8 69 fa ff ff       	call   c0100a4a <khexdump>
c0100fe1:	83 c4 10             	add    $0x10,%esp
c0100fe4:	83 ec 0c             	sub    $0xc,%esp
c0100fe7:	68 82 20 10 c0       	push   $0xc0102082
c0100fec:	e8 c0 f0 ff ff       	call   c01000b1 <kprintf>
c0100ff1:	83 c4 10             	add    $0x10,%esp
c0100ff4:	e8 37 f0 ff ff       	call   c0100030 <main>
c0100ff9:	eb fe                	jmp    c0100ff9 <archmain+0xcc>
c0100ffb:	90                   	nop

c0100ffc <io_outb>:
c0100ffc:	55                   	push   %ebp
c0100ffd:	89 e5                	mov    %esp,%ebp
c0100fff:	8b 55 08             	mov    0x8(%ebp),%edx
c0101002:	8a 45 0c             	mov    0xc(%ebp),%al
c0101005:	ee                   	out    %al,(%dx)
c0101006:	5d                   	pop    %ebp
c0101007:	c3                   	ret    

c0101008 <io_outw>:
c0101008:	55                   	push   %ebp
c0101009:	89 e5                	mov    %esp,%ebp
c010100b:	8b 55 08             	mov    0x8(%ebp),%edx
c010100e:	8b 45 0c             	mov    0xc(%ebp),%eax
c0101011:	66 ef                	out    %ax,(%dx)
c0101013:	5d                   	pop    %ebp
c0101014:	c3                   	ret    
c0101015:	8d 76 00             	lea    0x0(%esi),%esi

c0101018 <io_outd>:
c0101018:	55                   	push   %ebp
c0101019:	89 e5                	mov    %esp,%ebp
c010101b:	8b 55 08             	mov    0x8(%ebp),%edx
c010101e:	8b 45 0c             	mov    0xc(%ebp),%eax
c0101021:	ef                   	out    %eax,(%dx)
c0101022:	5d                   	pop    %ebp
c0101023:	c3                   	ret    

c0101024 <io_inb>:
c0101024:	55                   	push   %ebp
c0101025:	89 e5                	mov    %esp,%ebp
c0101027:	8b 55 08             	mov    0x8(%ebp),%edx
c010102a:	ec                   	in     (%dx),%al
c010102b:	5d                   	pop    %ebp
c010102c:	c3                   	ret    
c010102d:	8d 76 00             	lea    0x0(%esi),%esi

c0101030 <io_inw>:
c0101030:	55                   	push   %ebp
c0101031:	89 e5                	mov    %esp,%ebp
c0101033:	8b 55 08             	mov    0x8(%ebp),%edx
c0101036:	66 ed                	in     (%dx),%ax
c0101038:	5d                   	pop    %ebp
c0101039:	c3                   	ret    
c010103a:	66 90                	xchg   %ax,%ax

c010103c <io_ind>:
c010103c:	55                   	push   %ebp
c010103d:	89 e5                	mov    %esp,%ebp
c010103f:	8b 55 08             	mov    0x8(%ebp),%edx
c0101042:	ed                   	in     (%dx),%eax
c0101043:	5d                   	pop    %ebp
c0101044:	c3                   	ret    

c0101045 <arch_pmm_init>:
c0101045:	55                   	push   %ebp
c0101046:	89 e5                	mov    %esp,%ebp
c0101048:	53                   	push   %ebx
c0101049:	83 ec 34             	sub    $0x34,%esp
c010104c:	83 ec 0c             	sub    $0xc,%esp
c010104f:	68 8c 20 10 c0       	push   $0xc010208c
c0101054:	e8 58 f0 ff ff       	call   c01000b1 <kprintf>
c0101059:	83 c4 10             	add    $0x10,%esp
c010105c:	c7 45 f4 00 00 00 00 	movl   $0x0,-0xc(%ebp)
c0101063:	eb 48                	jmp    c01010ad <arch_pmm_init+0x68>
c0101065:	8b 55 f4             	mov    -0xc(%ebp),%edx
c0101068:	89 d0                	mov    %edx,%eax
c010106a:	01 c0                	add    %eax,%eax
c010106c:	01 d0                	add    %edx,%eax
c010106e:	c1 e0 02             	shl    $0x2,%eax
c0101071:	05 40 b0 10 c0       	add    $0xc010b040,%eax
c0101076:	c7 00 00 00 00 00    	movl   $0x0,(%eax)
c010107c:	8b 55 f4             	mov    -0xc(%ebp),%edx
c010107f:	89 d0                	mov    %edx,%eax
c0101081:	01 c0                	add    %eax,%eax
c0101083:	01 d0                	add    %edx,%eax
c0101085:	c1 e0 02             	shl    $0x2,%eax
c0101088:	05 44 b0 10 c0       	add    $0xc010b044,%eax
c010108d:	c7 00 00 00 00 00    	movl   $0x0,(%eax)
c0101093:	8b 55 f4             	mov    -0xc(%ebp),%edx
c0101096:	89 d0                	mov    %edx,%eax
c0101098:	01 c0                	add    %eax,%eax
c010109a:	01 d0                	add    %edx,%eax
c010109c:	c1 e0 02             	shl    $0x2,%eax
c010109f:	05 48 b0 10 c0       	add    $0xc010b048,%eax
c01010a4:	c7 00 00 00 00 00    	movl   $0x0,(%eax)
c01010aa:	ff 45 f4             	incl   -0xc(%ebp)
c01010ad:	83 7d f4 03          	cmpl   $0x3,-0xc(%ebp)
c01010b1:	7e b2                	jle    c0101065 <arch_pmm_init+0x20>
c01010b3:	c7 05 28 b0 10 c0 00 	movl   $0x0,0xc010b028
c01010ba:	00 00 00 
c01010bd:	c7 05 20 b0 10 c0 00 	movl   $0x0,0xc010b020
c01010c4:	00 00 00 
c01010c7:	c7 05 24 b0 10 c0 00 	movl   $0x0,0xc010b024
c01010ce:	00 00 00 
c01010d1:	8b 45 08             	mov    0x8(%ebp),%eax
c01010d4:	89 45 e0             	mov    %eax,-0x20(%ebp)
c01010d7:	c7 45 dc 00 00 00 00 	movl   $0x0,-0x24(%ebp)
c01010de:	c7 45 d8 00 00 00 00 	movl   $0x0,-0x28(%ebp)
c01010e5:	c7 45 d4 00 00 00 00 	movl   $0x0,-0x2c(%ebp)
c01010ec:	8d 45 d4             	lea    -0x2c(%ebp),%eax
c01010ef:	50                   	push   %eax
c01010f0:	8d 45 d8             	lea    -0x28(%ebp),%eax
c01010f3:	50                   	push   %eax
c01010f4:	8d 45 dc             	lea    -0x24(%ebp),%eax
c01010f7:	50                   	push   %eax
c01010f8:	ff 75 e0             	push   -0x20(%ebp)
c01010fb:	e8 90 05 00 00       	call   c0101690 <mboot_get_mmap>
c0101100:	83 c4 10             	add    $0x10,%esp
c0101103:	85 c0                	test   %eax,%eax
c0101105:	74 12                	je     c0101119 <arch_pmm_init+0xd4>
c0101107:	83 ec 0c             	sub    $0xc,%esp
c010110a:	68 a4 20 10 c0       	push   $0xc01020a4
c010110f:	e8 9d ef ff ff       	call   c01000b1 <kprintf>
c0101114:	83 c4 10             	add    $0x10,%esp
c0101117:	eb fe                	jmp    c0101117 <arch_pmm_init+0xd2>
c0101119:	8b 45 dc             	mov    -0x24(%ebp),%eax
c010111c:	85 c0                	test   %eax,%eax
c010111e:	0f 84 5c 01 00 00    	je     c0101280 <arch_pmm_init+0x23b>
c0101124:	8b 45 dc             	mov    -0x24(%ebp),%eax
c0101127:	8a 40 14             	mov    0x14(%eax),%al
c010112a:	3c 01                	cmp    $0x1,%al
c010112c:	0f 85 ac 00 00 00    	jne    c01011de <arch_pmm_init+0x199>
c0101132:	8b 15 28 b0 10 c0    	mov    0xc010b028,%edx
c0101138:	8b 45 d4             	mov    -0x2c(%ebp),%eax
c010113b:	01 d0                	add    %edx,%eax
c010113d:	a3 28 b0 10 c0       	mov    %eax,0xc010b028
c0101142:	a1 44 b0 10 c0       	mov    0xc010b044,%eax
c0101147:	85 c0                	test   %eax,%eax
c0101149:	75 1f                	jne    c010116a <arch_pmm_init+0x125>
c010114b:	8b 45 d8             	mov    -0x28(%ebp),%eax
c010114e:	a3 40 b0 10 c0       	mov    %eax,0xc010b040
c0101153:	8b 45 d4             	mov    -0x2c(%ebp),%eax
c0101156:	a3 44 b0 10 c0       	mov    %eax,0xc010b044
c010115b:	c7 05 48 b0 10 c0 00 	movl   $0x0,0xc010b048
c0101162:	00 00 00 
c0101165:	e9 16 01 00 00       	jmp    c0101280 <arch_pmm_init+0x23b>
c010116a:	c7 45 f0 40 b0 10 c0 	movl   $0xc010b040,-0x10(%ebp)
c0101171:	eb 09                	jmp    c010117c <arch_pmm_init+0x137>
c0101173:	8b 45 f0             	mov    -0x10(%ebp),%eax
c0101176:	8b 40 08             	mov    0x8(%eax),%eax
c0101179:	89 45 f0             	mov    %eax,-0x10(%ebp)
c010117c:	8b 45 f0             	mov    -0x10(%ebp),%eax
c010117f:	8b 40 08             	mov    0x8(%eax),%eax
c0101182:	85 c0                	test   %eax,%eax
c0101184:	75 ed                	jne    c0101173 <arch_pmm_init+0x12e>
c0101186:	83 ec 0c             	sub    $0xc,%esp
c0101189:	6a 0c                	push   $0xc
c010118b:	e8 f4 fa ff ff       	call   c0100c84 <kmalloc>
c0101190:	83 c4 10             	add    $0x10,%esp
c0101193:	8b 55 f0             	mov    -0x10(%ebp),%edx
c0101196:	89 42 08             	mov    %eax,0x8(%edx)
c0101199:	8b 45 f0             	mov    -0x10(%ebp),%eax
c010119c:	8b 40 08             	mov    0x8(%eax),%eax
c010119f:	85 c0                	test   %eax,%eax
c01011a1:	75 12                	jne    c01011b5 <arch_pmm_init+0x170>
c01011a3:	83 ec 0c             	sub    $0xc,%esp
c01011a6:	68 c8 20 10 c0       	push   $0xc01020c8
c01011ab:	e8 01 ef ff ff       	call   c01000b1 <kprintf>
c01011b0:	83 c4 10             	add    $0x10,%esp
c01011b3:	eb fe                	jmp    c01011b3 <arch_pmm_init+0x16e>
c01011b5:	8b 45 f0             	mov    -0x10(%ebp),%eax
c01011b8:	8b 40 08             	mov    0x8(%eax),%eax
c01011bb:	8b 55 d8             	mov    -0x28(%ebp),%edx
c01011be:	89 10                	mov    %edx,(%eax)
c01011c0:	8b 45 f0             	mov    -0x10(%ebp),%eax
c01011c3:	8b 40 08             	mov    0x8(%eax),%eax
c01011c6:	8b 55 d4             	mov    -0x2c(%ebp),%edx
c01011c9:	89 50 04             	mov    %edx,0x4(%eax)
c01011cc:	8b 45 f0             	mov    -0x10(%ebp),%eax
c01011cf:	8b 40 08             	mov    0x8(%eax),%eax
c01011d2:	c7 40 08 00 00 00 00 	movl   $0x0,0x8(%eax)
c01011d9:	e9 a2 00 00 00       	jmp    c0101280 <arch_pmm_init+0x23b>
c01011de:	8b 45 dc             	mov    -0x24(%ebp),%eax
c01011e1:	8a 40 14             	mov    0x14(%eax),%al
c01011e4:	3c 03                	cmp    $0x3,%al
c01011e6:	0f 85 94 00 00 00    	jne    c0101280 <arch_pmm_init+0x23b>
c01011ec:	a1 5c b0 10 c0       	mov    0xc010b05c,%eax
c01011f1:	85 c0                	test   %eax,%eax
c01011f3:	75 1c                	jne    c0101211 <arch_pmm_init+0x1cc>
c01011f5:	8b 45 d8             	mov    -0x28(%ebp),%eax
c01011f8:	a3 58 b0 10 c0       	mov    %eax,0xc010b058
c01011fd:	8b 45 d4             	mov    -0x2c(%ebp),%eax
c0101200:	a3 5c b0 10 c0       	mov    %eax,0xc010b05c
c0101205:	c7 05 60 b0 10 c0 00 	movl   $0x0,0xc010b060
c010120c:	00 00 00 
c010120f:	eb 6f                	jmp    c0101280 <arch_pmm_init+0x23b>
c0101211:	c7 45 ec 58 b0 10 c0 	movl   $0xc010b058,-0x14(%ebp)
c0101218:	eb 09                	jmp    c0101223 <arch_pmm_init+0x1de>
c010121a:	8b 45 ec             	mov    -0x14(%ebp),%eax
c010121d:	8b 40 08             	mov    0x8(%eax),%eax
c0101220:	89 45 ec             	mov    %eax,-0x14(%ebp)
c0101223:	8b 45 ec             	mov    -0x14(%ebp),%eax
c0101226:	8b 40 08             	mov    0x8(%eax),%eax
c0101229:	85 c0                	test   %eax,%eax
c010122b:	75 ed                	jne    c010121a <arch_pmm_init+0x1d5>
c010122d:	8b 45 ec             	mov    -0x14(%ebp),%eax
c0101230:	8b 40 08             	mov    0x8(%eax),%eax
c0101233:	85 c0                	test   %eax,%eax
c0101235:	75 12                	jne    c0101249 <arch_pmm_init+0x204>
c0101237:	83 ec 0c             	sub    $0xc,%esp
c010123a:	68 c8 20 10 c0       	push   $0xc01020c8
c010123f:	e8 6d ee ff ff       	call   c01000b1 <kprintf>
c0101244:	83 c4 10             	add    $0x10,%esp
c0101247:	eb fe                	jmp    c0101247 <arch_pmm_init+0x202>
c0101249:	83 ec 0c             	sub    $0xc,%esp
c010124c:	6a 0c                	push   $0xc
c010124e:	e8 31 fa ff ff       	call   c0100c84 <kmalloc>
c0101253:	83 c4 10             	add    $0x10,%esp
c0101256:	8b 55 ec             	mov    -0x14(%ebp),%edx
c0101259:	89 42 08             	mov    %eax,0x8(%edx)
c010125c:	8b 45 ec             	mov    -0x14(%ebp),%eax
c010125f:	8b 40 08             	mov    0x8(%eax),%eax
c0101262:	8b 55 d8             	mov    -0x28(%ebp),%edx
c0101265:	89 10                	mov    %edx,(%eax)
c0101267:	8b 45 ec             	mov    -0x14(%ebp),%eax
c010126a:	8b 40 08             	mov    0x8(%eax),%eax
c010126d:	8b 55 d4             	mov    -0x2c(%ebp),%edx
c0101270:	89 50 04             	mov    %edx,0x4(%eax)
c0101273:	8b 45 ec             	mov    -0x14(%ebp),%eax
c0101276:	8b 40 08             	mov    0x8(%eax),%eax
c0101279:	c7 40 08 00 00 00 00 	movl   $0x0,0x8(%eax)
c0101280:	8b 45 dc             	mov    -0x24(%ebp),%eax
c0101283:	85 c0                	test   %eax,%eax
c0101285:	0f 85 61 fe ff ff    	jne    c01010ec <arch_pmm_init+0xa7>
c010128b:	83 ec 0c             	sub    $0xc,%esp
c010128e:	68 70 b0 10 c0       	push   $0xc010b070
c0101293:	e8 b8 fb ff ff       	call   c0100e50 <arch_spinlock_init>
c0101298:	83 c4 10             	add    $0x10,%esp
c010129b:	c7 45 e8 00 00 00 00 	movl   $0x0,-0x18(%ebp)
c01012a2:	eb 0e                	jmp    c01012b2 <arch_pmm_init+0x26d>
c01012a4:	8b 45 e8             	mov    -0x18(%ebp),%eax
c01012a7:	05 80 b0 10 c0       	add    $0xc010b080,%eax
c01012ac:	c6 00 ff             	movb   $0xff,(%eax)
c01012af:	ff 45 e8             	incl   -0x18(%ebp)
c01012b2:	81 7d e8 ff ff 01 00 	cmpl   $0x1ffff,-0x18(%ebp)
c01012b9:	7e e9                	jle    c01012a4 <arch_pmm_init+0x25f>
c01012bb:	c7 05 20 b0 10 c0 00 	movl   $0x0,0xc010b020
c01012c2:	00 00 00 
c01012c5:	a1 28 b0 10 c0       	mov    0xc010b028,%eax
c01012ca:	a3 24 b0 10 c0       	mov    %eax,0xc010b024
c01012cf:	c7 45 e4 40 b0 10 c0 	movl   $0xc010b040,-0x1c(%ebp)
c01012d6:	eb 2f                	jmp    c0101307 <arch_pmm_init+0x2c2>
c01012d8:	8b 45 e4             	mov    -0x1c(%ebp),%eax
c01012db:	8b 40 04             	mov    0x4(%eax),%eax
c01012de:	bb 00 10 00 00       	mov    $0x1000,%ebx
c01012e3:	ba 00 00 00 00       	mov    $0x0,%edx
c01012e8:	f7 f3                	div    %ebx
c01012ea:	89 c2                	mov    %eax,%edx
c01012ec:	8b 45 e4             	mov    -0x1c(%ebp),%eax
c01012ef:	8b 00                	mov    (%eax),%eax
c01012f1:	83 ec 08             	sub    $0x8,%esp
c01012f4:	52                   	push   %edx
c01012f5:	50                   	push   %eax
c01012f6:	e8 9f 02 00 00       	call   c010159a <arch_pmm_unuse>
c01012fb:	83 c4 10             	add    $0x10,%esp
c01012fe:	8b 45 e4             	mov    -0x1c(%ebp),%eax
c0101301:	8b 40 08             	mov    0x8(%eax),%eax
c0101304:	89 45 e4             	mov    %eax,-0x1c(%ebp)
c0101307:	83 7d e4 00          	cmpl   $0x0,-0x1c(%ebp)
c010130b:	75 cb                	jne    c01012d8 <arch_pmm_init+0x293>
c010130d:	b9 00 10 00 00       	mov    $0x1000,%ecx
c0101312:	b8 00 00 40 00       	mov    $0x400000,%eax
c0101317:	ba 00 00 00 00       	mov    $0x0,%edx
c010131c:	f7 f1                	div    %ecx
c010131e:	89 c1                	mov    %eax,%ecx
c0101320:	bb 00 10 00 00       	mov    $0x1000,%ebx
c0101325:	b8 00 00 10 00       	mov    $0x100000,%eax
c010132a:	ba 00 00 00 00       	mov    $0x0,%edx
c010132f:	f7 f3                	div    %ebx
c0101331:	83 ec 08             	sub    $0x8,%esp
c0101334:	51                   	push   %ecx
c0101335:	50                   	push   %eax
c0101336:	e8 89 01 00 00       	call   c01014c4 <arch_pmm_use>
c010133b:	83 c4 10             	add    $0x10,%esp
c010133e:	83 ec 0c             	sub    $0xc,%esp
c0101341:	68 00 21 10 c0       	push   $0xc0102100
c0101346:	e8 66 ed ff ff       	call   c01000b1 <kprintf>
c010134b:	83 c4 10             	add    $0x10,%esp
c010134e:	90                   	nop
c010134f:	8b 5d fc             	mov    -0x4(%ebp),%ebx
c0101352:	c9                   	leave  
c0101353:	c3                   	ret    

c0101354 <arch_pmm_alloc>:
c0101354:	55                   	push   %ebp
c0101355:	89 e5                	mov    %esp,%ebp
c0101357:	83 ec 28             	sub    $0x28,%esp
c010135a:	83 7d 08 00          	cmpl   $0x0,0x8(%ebp)
c010135e:	74 06                	je     c0101366 <arch_pmm_alloc+0x12>
c0101360:	83 7d 0c 03          	cmpl   $0x3,0xc(%ebp)
c0101364:	76 0a                	jbe    c0101370 <arch_pmm_alloc+0x1c>
c0101366:	b8 00 00 00 00       	mov    $0x0,%eax
c010136b:	e9 38 01 00 00       	jmp    c01014a8 <arch_pmm_alloc+0x154>
c0101370:	ba 00 10 00 00       	mov    $0x1000,%edx
c0101375:	8b 45 08             	mov    0x8(%ebp),%eax
c0101378:	0f af c2             	imul   %edx,%eax
c010137b:	89 45 dc             	mov    %eax,-0x24(%ebp)
c010137e:	a1 20 b0 10 c0       	mov    0xc010b020,%eax
c0101383:	39 45 dc             	cmp    %eax,-0x24(%ebp)
c0101386:	76 0a                	jbe    c0101392 <arch_pmm_alloc+0x3e>
c0101388:	b8 00 00 00 00       	mov    $0x0,%eax
c010138d:	e9 16 01 00 00       	jmp    c01014a8 <arch_pmm_alloc+0x154>
c0101392:	8b 55 0c             	mov    0xc(%ebp),%edx
c0101395:	89 d0                	mov    %edx,%eax
c0101397:	01 c0                	add    %eax,%eax
c0101399:	01 d0                	add    %edx,%eax
c010139b:	c1 e0 02             	shl    $0x2,%eax
c010139e:	05 40 b0 10 c0       	add    $0xc010b040,%eax
c01013a3:	89 45 f4             	mov    %eax,-0xc(%ebp)
c01013a6:	e9 ee 00 00 00       	jmp    c0101499 <arch_pmm_alloc+0x145>
c01013ab:	8b 45 f4             	mov    -0xc(%ebp),%eax
c01013ae:	8b 40 04             	mov    0x4(%eax),%eax
c01013b1:	39 45 dc             	cmp    %eax,-0x24(%ebp)
c01013b4:	0f 87 d6 00 00 00    	ja     c0101490 <arch_pmm_alloc+0x13c>
c01013ba:	8b 45 f4             	mov    -0xc(%ebp),%eax
c01013bd:	8b 00                	mov    (%eax),%eax
c01013bf:	ba 00 10 00 00       	mov    $0x1000,%edx
c01013c4:	8d 0c d5 00 00 00 00 	lea    0x0(,%edx,8),%ecx
c01013cb:	ba 00 00 00 00       	mov    $0x0,%edx
c01013d0:	f7 f1                	div    %ecx
c01013d2:	89 45 f0             	mov    %eax,-0x10(%ebp)
c01013d5:	8b 45 f4             	mov    -0xc(%ebp),%eax
c01013d8:	8b 00                	mov    (%eax),%eax
c01013da:	83 e0 07             	and    $0x7,%eax
c01013dd:	89 45 ec             	mov    %eax,-0x14(%ebp)
c01013e0:	c7 45 e8 00 00 00 00 	movl   $0x0,-0x18(%ebp)
c01013e7:	c7 45 e4 00 00 00 00 	movl   $0x0,-0x1c(%ebp)
c01013ee:	c7 45 e0 00 00 00 00 	movl   $0x0,-0x20(%ebp)
c01013f5:	eb 7a                	jmp    c0101471 <arch_pmm_alloc+0x11d>
c01013f7:	8b 45 f0             	mov    -0x10(%ebp),%eax
c01013fa:	05 80 b0 10 c0       	add    $0xc010b080,%eax
c01013ff:	8a 00                	mov    (%eax),%al
c0101401:	0f b6 d0             	movzbl %al,%edx
c0101404:	8b 45 ec             	mov    -0x14(%ebp),%eax
c0101407:	88 c1                	mov    %al,%cl
c0101409:	d3 fa                	sar    %cl,%edx
c010140b:	89 d0                	mov    %edx,%eax
c010140d:	83 e0 01             	and    $0x1,%eax
c0101410:	85 c0                	test   %eax,%eax
c0101412:	75 40                	jne    c0101454 <arch_pmm_alloc+0x100>
c0101414:	83 7d e4 00          	cmpl   $0x0,-0x1c(%ebp)
c0101418:	75 18                	jne    c0101432 <arch_pmm_alloc+0xde>
c010141a:	b8 00 10 00 00       	mov    $0x1000,%eax
c010141f:	0f af 45 f0          	imul   -0x10(%ebp),%eax
c0101423:	8d 14 c5 00 00 00 00 	lea    0x0(,%eax,8),%edx
c010142a:	8b 45 ec             	mov    -0x14(%ebp),%eax
c010142d:	01 d0                	add    %edx,%eax
c010142f:	89 45 e8             	mov    %eax,-0x18(%ebp)
c0101432:	ff 45 e4             	incl   -0x1c(%ebp)
c0101435:	8b 45 e4             	mov    -0x1c(%ebp),%eax
c0101438:	3b 45 08             	cmp    0x8(%ebp),%eax
c010143b:	75 1e                	jne    c010145b <arch_pmm_alloc+0x107>
c010143d:	8b 45 e8             	mov    -0x18(%ebp),%eax
c0101440:	83 ec 08             	sub    $0x8,%esp
c0101443:	ff 75 08             	push   0x8(%ebp)
c0101446:	50                   	push   %eax
c0101447:	e8 78 00 00 00       	call   c01014c4 <arch_pmm_use>
c010144c:	83 c4 10             	add    $0x10,%esp
c010144f:	8b 45 e8             	mov    -0x18(%ebp),%eax
c0101452:	eb 54                	jmp    c01014a8 <arch_pmm_alloc+0x154>
c0101454:	c7 45 e4 00 00 00 00 	movl   $0x0,-0x1c(%ebp)
c010145b:	ff 45 ec             	incl   -0x14(%ebp)
c010145e:	83 7d ec 07          	cmpl   $0x7,-0x14(%ebp)
c0101462:	76 0a                	jbe    c010146e <arch_pmm_alloc+0x11a>
c0101464:	c7 45 ec 00 00 00 00 	movl   $0x0,-0x14(%ebp)
c010146b:	ff 45 f0             	incl   -0x10(%ebp)
c010146e:	ff 45 e0             	incl   -0x20(%ebp)
c0101471:	8b 45 f4             	mov    -0xc(%ebp),%eax
c0101474:	8b 40 04             	mov    0x4(%eax),%eax
c0101477:	b9 00 10 00 00       	mov    $0x1000,%ecx
c010147c:	ba 00 00 00 00       	mov    $0x0,%edx
c0101481:	f7 f1                	div    %ecx
c0101483:	89 c2                	mov    %eax,%edx
c0101485:	8b 45 e0             	mov    -0x20(%ebp),%eax
c0101488:	39 c2                	cmp    %eax,%edx
c010148a:	0f 87 67 ff ff ff    	ja     c01013f7 <arch_pmm_alloc+0xa3>
c0101490:	8b 45 f4             	mov    -0xc(%ebp),%eax
c0101493:	8b 40 08             	mov    0x8(%eax),%eax
c0101496:	89 45 f4             	mov    %eax,-0xc(%ebp)
c0101499:	83 7d f4 00          	cmpl   $0x0,-0xc(%ebp)
c010149d:	0f 85 08 ff ff ff    	jne    c01013ab <arch_pmm_alloc+0x57>
c01014a3:	b8 00 00 00 00       	mov    $0x0,%eax
c01014a8:	c9                   	leave  
c01014a9:	c3                   	ret    

c01014aa <arch_pmm_free>:
c01014aa:	55                   	push   %ebp
c01014ab:	89 e5                	mov    %esp,%ebp
c01014ad:	83 ec 08             	sub    $0x8,%esp
c01014b0:	83 ec 08             	sub    $0x8,%esp
c01014b3:	ff 75 0c             	push   0xc(%ebp)
c01014b6:	ff 75 08             	push   0x8(%ebp)
c01014b9:	e8 dc 00 00 00       	call   c010159a <arch_pmm_unuse>
c01014be:	83 c4 10             	add    $0x10,%esp
c01014c1:	90                   	nop
c01014c2:	c9                   	leave  
c01014c3:	c3                   	ret    

c01014c4 <arch_pmm_use>:
c01014c4:	55                   	push   %ebp
c01014c5:	89 e5                	mov    %esp,%ebp
c01014c7:	53                   	push   %ebx
c01014c8:	83 ec 14             	sub    $0x14,%esp
c01014cb:	8b 45 08             	mov    0x8(%ebp),%eax
c01014ce:	ba 00 10 00 00       	mov    $0x1000,%edx
c01014d3:	8d 0c d5 00 00 00 00 	lea    0x0(,%edx,8),%ecx
c01014da:	ba 00 00 00 00       	mov    $0x0,%edx
c01014df:	f7 f1                	div    %ecx
c01014e1:	89 45 f4             	mov    %eax,-0xc(%ebp)
c01014e4:	8b 45 08             	mov    0x8(%ebp),%eax
c01014e7:	83 e0 07             	and    $0x7,%eax
c01014ea:	89 45 f0             	mov    %eax,-0x10(%ebp)
c01014ed:	83 7d 0c 00          	cmpl   $0x0,0xc(%ebp)
c01014f1:	0f 84 9d 00 00 00    	je     c0101594 <arch_pmm_use+0xd0>
c01014f7:	83 ec 0c             	sub    $0xc,%esp
c01014fa:	68 70 b0 10 c0       	push   $0xc010b070
c01014ff:	e8 5c f9 ff ff       	call   c0100e60 <arch_spinlock_lock>
c0101504:	83 c4 10             	add    $0x10,%esp
c0101507:	b8 00 10 00 00       	mov    $0x1000,%eax
c010150c:	0f af 45 0c          	imul   0xc(%ebp),%eax
c0101510:	89 c2                	mov    %eax,%edx
c0101512:	a1 24 b0 10 c0       	mov    0xc010b024,%eax
c0101517:	01 d0                	add    %edx,%eax
c0101519:	a3 24 b0 10 c0       	mov    %eax,0xc010b024
c010151e:	a1 20 b0 10 c0       	mov    0xc010b020,%eax
c0101523:	ba 00 10 00 00       	mov    $0x1000,%edx
c0101528:	0f af 55 0c          	imul   0xc(%ebp),%edx
c010152c:	29 d0                	sub    %edx,%eax
c010152e:	a3 20 b0 10 c0       	mov    %eax,0xc010b020
c0101533:	c7 45 ec 00 00 00 00 	movl   $0x0,-0x14(%ebp)
c010153a:	eb 3e                	jmp    c010157a <arch_pmm_use+0xb6>
c010153c:	8b 45 f4             	mov    -0xc(%ebp),%eax
c010153f:	05 80 b0 10 c0       	add    $0xc010b080,%eax
c0101544:	8a 00                	mov    (%eax),%al
c0101546:	88 c2                	mov    %al,%dl
c0101548:	8b 45 f0             	mov    -0x10(%ebp),%eax
c010154b:	bb 01 00 00 00       	mov    $0x1,%ebx
c0101550:	88 c1                	mov    %al,%cl
c0101552:	d3 e3                	shl    %cl,%ebx
c0101554:	89 d8                	mov    %ebx,%eax
c0101556:	09 d0                	or     %edx,%eax
c0101558:	88 c2                	mov    %al,%dl
c010155a:	8b 45 f4             	mov    -0xc(%ebp),%eax
c010155d:	05 80 b0 10 c0       	add    $0xc010b080,%eax
c0101562:	88 10                	mov    %dl,(%eax)
c0101564:	ff 45 f0             	incl   -0x10(%ebp)
c0101567:	83 7d f0 08          	cmpl   $0x8,-0x10(%ebp)
c010156b:	75 0a                	jne    c0101577 <arch_pmm_use+0xb3>
c010156d:	c7 45 f0 00 00 00 00 	movl   $0x0,-0x10(%ebp)
c0101574:	ff 45 f4             	incl   -0xc(%ebp)
c0101577:	ff 45 ec             	incl   -0x14(%ebp)
c010157a:	8b 45 ec             	mov    -0x14(%ebp),%eax
c010157d:	39 45 0c             	cmp    %eax,0xc(%ebp)
c0101580:	77 ba                	ja     c010153c <arch_pmm_use+0x78>
c0101582:	83 ec 0c             	sub    $0xc,%esp
c0101585:	68 70 b0 10 c0       	push   $0xc010b070
c010158a:	e8 e6 f8 ff ff       	call   c0100e75 <arch_spinlock_unlock>
c010158f:	83 c4 10             	add    $0x10,%esp
c0101592:	eb 01                	jmp    c0101595 <arch_pmm_use+0xd1>
c0101594:	90                   	nop
c0101595:	8b 5d fc             	mov    -0x4(%ebp),%ebx
c0101598:	c9                   	leave  
c0101599:	c3                   	ret    

c010159a <arch_pmm_unuse>:
c010159a:	55                   	push   %ebp
c010159b:	89 e5                	mov    %esp,%ebp
c010159d:	53                   	push   %ebx
c010159e:	83 ec 14             	sub    $0x14,%esp
c01015a1:	8b 45 08             	mov    0x8(%ebp),%eax
c01015a4:	ba 00 10 00 00       	mov    $0x1000,%edx
c01015a9:	8d 0c d5 00 00 00 00 	lea    0x0(,%edx,8),%ecx
c01015b0:	ba 00 00 00 00       	mov    $0x0,%edx
c01015b5:	f7 f1                	div    %ecx
c01015b7:	89 45 f4             	mov    %eax,-0xc(%ebp)
c01015ba:	8b 45 08             	mov    0x8(%ebp),%eax
c01015bd:	83 e0 07             	and    $0x7,%eax
c01015c0:	89 45 f0             	mov    %eax,-0x10(%ebp)
c01015c3:	83 7d 0c 00          	cmpl   $0x0,0xc(%ebp)
c01015c7:	0f 84 9f 00 00 00    	je     c010166c <arch_pmm_unuse+0xd2>
c01015cd:	83 ec 0c             	sub    $0xc,%esp
c01015d0:	68 70 b0 10 c0       	push   $0xc010b070
c01015d5:	e8 86 f8 ff ff       	call   c0100e60 <arch_spinlock_lock>
c01015da:	83 c4 10             	add    $0x10,%esp
c01015dd:	a1 24 b0 10 c0       	mov    0xc010b024,%eax
c01015e2:	ba 00 10 00 00       	mov    $0x1000,%edx
c01015e7:	0f af 55 0c          	imul   0xc(%ebp),%edx
c01015eb:	29 d0                	sub    %edx,%eax
c01015ed:	a3 24 b0 10 c0       	mov    %eax,0xc010b024
c01015f2:	b8 00 10 00 00       	mov    $0x1000,%eax
c01015f7:	0f af 45 0c          	imul   0xc(%ebp),%eax
c01015fb:	89 c2                	mov    %eax,%edx
c01015fd:	a1 20 b0 10 c0       	mov    0xc010b020,%eax
c0101602:	01 d0                	add    %edx,%eax
c0101604:	a3 20 b0 10 c0       	mov    %eax,0xc010b020
c0101609:	c7 45 ec 00 00 00 00 	movl   $0x0,-0x14(%ebp)
c0101610:	eb 40                	jmp    c0101652 <arch_pmm_unuse+0xb8>
c0101612:	8b 45 f4             	mov    -0xc(%ebp),%eax
c0101615:	05 80 b0 10 c0       	add    $0xc010b080,%eax
c010161a:	8a 00                	mov    (%eax),%al
c010161c:	88 c2                	mov    %al,%dl
c010161e:	8b 45 f0             	mov    -0x10(%ebp),%eax
c0101621:	bb 01 00 00 00       	mov    $0x1,%ebx
c0101626:	88 c1                	mov    %al,%cl
c0101628:	d3 e3                	shl    %cl,%ebx
c010162a:	89 d8                	mov    %ebx,%eax
c010162c:	f7 d0                	not    %eax
c010162e:	21 d0                	and    %edx,%eax
c0101630:	88 c2                	mov    %al,%dl
c0101632:	8b 45 f4             	mov    -0xc(%ebp),%eax
c0101635:	05 80 b0 10 c0       	add    $0xc010b080,%eax
c010163a:	88 10                	mov    %dl,(%eax)
c010163c:	ff 45 f0             	incl   -0x10(%ebp)
c010163f:	83 7d f0 08          	cmpl   $0x8,-0x10(%ebp)
c0101643:	75 0a                	jne    c010164f <arch_pmm_unuse+0xb5>
c0101645:	c7 45 f0 00 00 00 00 	movl   $0x0,-0x10(%ebp)
c010164c:	ff 45 f4             	incl   -0xc(%ebp)
c010164f:	ff 45 ec             	incl   -0x14(%ebp)
c0101652:	8b 45 ec             	mov    -0x14(%ebp),%eax
c0101655:	39 45 0c             	cmp    %eax,0xc(%ebp)
c0101658:	77 b8                	ja     c0101612 <arch_pmm_unuse+0x78>
c010165a:	83 ec 0c             	sub    $0xc,%esp
c010165d:	68 70 b0 10 c0       	push   $0xc010b070
c0101662:	e8 0e f8 ff ff       	call   c0100e75 <arch_spinlock_unlock>
c0101667:	83 c4 10             	add    $0x10,%esp
c010166a:	eb 01                	jmp    c010166d <arch_pmm_unuse+0xd3>
c010166c:	90                   	nop
c010166d:	8b 5d fc             	mov    -0x4(%ebp),%ebx
c0101670:	c9                   	leave  
c0101671:	c3                   	ret    

c0101672 <arch_pmm_get_available>:
c0101672:	55                   	push   %ebp
c0101673:	89 e5                	mov    %esp,%ebp
c0101675:	a1 28 b0 10 c0       	mov    0xc010b028,%eax
c010167a:	5d                   	pop    %ebp
c010167b:	c3                   	ret    

c010167c <arch_pmm_get_free>:
c010167c:	55                   	push   %ebp
c010167d:	89 e5                	mov    %esp,%ebp
c010167f:	a1 20 b0 10 c0       	mov    0xc010b020,%eax
c0101684:	5d                   	pop    %ebp
c0101685:	c3                   	ret    

c0101686 <arch_pmm_get_used>:
c0101686:	55                   	push   %ebp
c0101687:	89 e5                	mov    %esp,%ebp
c0101689:	a1 24 b0 10 c0       	mov    0xc010b024,%eax
c010168e:	5d                   	pop    %ebp
c010168f:	c3                   	ret    

c0101690 <mboot_get_mmap>:
c0101690:	55                   	push   %ebp
c0101691:	89 e5                	mov    %esp,%ebp
c0101693:	53                   	push   %ebx
c0101694:	8b 4d 08             	mov    0x8(%ebp),%ecx
c0101697:	8b 45 0c             	mov    0xc(%ebp),%eax
c010169a:	8b 10                	mov    (%eax),%edx
c010169c:	85 d2                	test   %edx,%edx
c010169e:	74 44                	je     c01016e4 <mboot_get_mmap+0x54>
c01016a0:	8b 1a                	mov    (%edx),%ebx
c01016a2:	8d 54 1a 04          	lea    0x4(%edx,%ebx,1),%edx
c01016a6:	89 10                	mov    %edx,(%eax)
c01016a8:	8b 59 30             	mov    0x30(%ecx),%ebx
c01016ab:	8b 49 2c             	mov    0x2c(%ecx),%ecx
c01016ae:	8d 8c 0b 00 00 00 c0 	lea    -0x40000000(%ebx,%ecx,1),%ecx
c01016b5:	39 ca                	cmp    %ecx,%edx
c01016b7:	73 1b                	jae    c01016d4 <mboot_get_mmap+0x44>
c01016b9:	8b 4a 04             	mov    0x4(%edx),%ecx
c01016bc:	8b 55 10             	mov    0x10(%ebp),%edx
c01016bf:	89 0a                	mov    %ecx,(%edx)
c01016c1:	8b 00                	mov    (%eax),%eax
c01016c3:	8b 50 0c             	mov    0xc(%eax),%edx
c01016c6:	8b 45 14             	mov    0x14(%ebp),%eax
c01016c9:	89 10                	mov    %edx,(%eax)
c01016cb:	31 c0                	xor    %eax,%eax
c01016cd:	8b 5d fc             	mov    -0x4(%ebp),%ebx
c01016d0:	c9                   	leave  
c01016d1:	c3                   	ret    
c01016d2:	66 90                	xchg   %ax,%ax
c01016d4:	c7 00 00 00 00 00    	movl   $0x0,(%eax)
c01016da:	31 c0                	xor    %eax,%eax
c01016dc:	8b 5d fc             	mov    -0x4(%ebp),%ebx
c01016df:	c9                   	leave  
c01016e0:	c3                   	ret    
c01016e1:	8d 76 00             	lea    0x0(%esi),%esi
c01016e4:	f6 01 40             	testb  $0x40,(%ecx)
c01016e7:	74 0d                	je     c01016f6 <mboot_get_mmap+0x66>
c01016e9:	8b 59 30             	mov    0x30(%ecx),%ebx
c01016ec:	8d 93 00 00 00 c0    	lea    -0x40000000(%ebx),%edx
c01016f2:	89 10                	mov    %edx,(%eax)
c01016f4:	eb b5                	jmp    c01016ab <mboot_get_mmap+0x1b>
c01016f6:	b8 ff ff ff ff       	mov    $0xffffffff,%eax
c01016fb:	eb d0                	jmp    c01016cd <mboot_get_mmap+0x3d>

c01016fd <arch_vas_init>:
c01016fd:	55                   	push   %ebp
c01016fe:	89 e5                	mov    %esp,%ebp
c0101700:	90                   	nop
c0101701:	5d                   	pop    %ebp
c0101702:	c3                   	ret    

c0101703 <arch_vas_getcr3>:
c0101703:	55                   	push   %ebp
c0101704:	89 e5                	mov    %esp,%ebp
c0101706:	83 ec 10             	sub    $0x10,%esp
c0101709:	0f 20 d8             	mov    %cr3,%eax
c010170c:	89 45 fc             	mov    %eax,-0x4(%ebp)
c010170f:	8b 45 fc             	mov    -0x4(%ebp),%eax
c0101712:	c9                   	leave  
c0101713:	c3                   	ret    

c0101714 <arch_vas_getpte>:
c0101714:	55                   	push   %ebp
c0101715:	89 e5                	mov    %esp,%ebp
c0101717:	83 ec 10             	sub    $0x10,%esp
c010171a:	8b 45 08             	mov    0x8(%ebp),%eax
c010171d:	c1 e8 0c             	shr    $0xc,%eax
c0101720:	89 45 fc             	mov    %eax,-0x4(%ebp)
c0101723:	8b 45 fc             	mov    -0x4(%ebp),%eax
c0101726:	c1 e8 0a             	shr    $0xa,%eax
c0101729:	89 45 f8             	mov    %eax,-0x8(%ebp)
c010172c:	8b 45 f8             	mov    -0x8(%ebp),%eax
c010172f:	c1 e0 02             	shl    $0x2,%eax
c0101732:	2d 00 10 00 00       	sub    $0x1000,%eax
c0101737:	8b 00                	mov    (%eax),%eax
c0101739:	89 45 f4             	mov    %eax,-0xc(%ebp)
c010173c:	83 7d f4 00          	cmpl   $0x0,-0xc(%ebp)
c0101740:	75 07                	jne    c0101749 <arch_vas_getpte+0x35>
c0101742:	b8 00 00 00 00       	mov    $0x0,%eax
c0101747:	eb 13                	jmp    c010175c <arch_vas_getpte+0x48>
c0101749:	8b 45 fc             	mov    -0x4(%ebp),%eax
c010174c:	c1 e0 02             	shl    $0x2,%eax
c010174f:	2d 00 00 40 00       	sub    $0x400000,%eax
c0101754:	8b 00                	mov    (%eax),%eax
c0101756:	89 45 f0             	mov    %eax,-0x10(%ebp)
c0101759:	8b 45 f0             	mov    -0x10(%ebp),%eax
c010175c:	c9                   	leave  
c010175d:	c3                   	ret    

c010175e <arch_vas_getpde>:
c010175e:	55                   	push   %ebp
c010175f:	89 e5                	mov    %esp,%ebp
c0101761:	83 ec 10             	sub    $0x10,%esp
c0101764:	8b 45 08             	mov    0x8(%ebp),%eax
c0101767:	c1 e8 0c             	shr    $0xc,%eax
c010176a:	89 45 fc             	mov    %eax,-0x4(%ebp)
c010176d:	8b 45 fc             	mov    -0x4(%ebp),%eax
c0101770:	c1 e8 0a             	shr    $0xa,%eax
c0101773:	89 45 f8             	mov    %eax,-0x8(%ebp)
c0101776:	8b 45 f8             	mov    -0x8(%ebp),%eax
c0101779:	c1 e0 02             	shl    $0x2,%eax
c010177c:	2d 00 10 00 00       	sub    $0x1000,%eax
c0101781:	8b 00                	mov    (%eax),%eax
c0101783:	89 45 f4             	mov    %eax,-0xc(%ebp)
c0101786:	8b 45 f4             	mov    -0xc(%ebp),%eax
c0101789:	c9                   	leave  
c010178a:	c3                   	ret    

c010178b <arch_vas_map>:
c010178b:	55                   	push   %ebp
c010178c:	89 e5                	mov    %esp,%ebp
c010178e:	83 ec 28             	sub    $0x28,%esp
c0101791:	8b 45 0c             	mov    0xc(%ebp),%eax
c0101794:	c1 e8 0c             	shr    $0xc,%eax
c0101797:	89 45 f0             	mov    %eax,-0x10(%ebp)
c010179a:	8b 45 f0             	mov    -0x10(%ebp),%eax
c010179d:	c1 e8 0a             	shr    $0xa,%eax
c01017a0:	89 45 ec             	mov    %eax,-0x14(%ebp)
c01017a3:	8b 45 ec             	mov    -0x14(%ebp),%eax
c01017a6:	c1 e0 02             	shl    $0x2,%eax
c01017a9:	2d 00 10 00 00       	sub    $0x1000,%eax
c01017ae:	8b 00                	mov    (%eax),%eax
c01017b0:	89 45 e8             	mov    %eax,-0x18(%ebp)
c01017b3:	8b 45 e8             	mov    -0x18(%ebp),%eax
c01017b6:	83 e0 01             	and    $0x1,%eax
c01017b9:	85 c0                	test   %eax,%eax
c01017bb:	75 2a                	jne    c01017e7 <arch_vas_map+0x5c>
c01017bd:	83 ec 08             	sub    $0x8,%esp
c01017c0:	6a 00                	push   $0x0
c01017c2:	6a 01                	push   $0x1
c01017c4:	e8 8b fb ff ff       	call   c0101354 <arch_pmm_alloc>
c01017c9:	83 c4 10             	add    $0x10,%esp
c01017cc:	89 45 e4             	mov    %eax,-0x1c(%ebp)
c01017cf:	8b 55 e4             	mov    -0x1c(%ebp),%edx
c01017d2:	8b 45 ec             	mov    -0x14(%ebp),%eax
c01017d5:	c1 e0 02             	shl    $0x2,%eax
c01017d8:	2d 00 10 00 00       	sub    $0x1000,%eax
c01017dd:	83 ca 07             	or     $0x7,%edx
c01017e0:	89 10                	mov    %edx,(%eax)
c01017e2:	8b 00                	mov    (%eax),%eax
c01017e4:	89 45 e8             	mov    %eax,-0x18(%ebp)
c01017e7:	8b 45 08             	mov    0x8(%ebp),%eax
c01017ea:	83 c8 01             	or     $0x1,%eax
c01017ed:	89 45 f4             	mov    %eax,-0xc(%ebp)
c01017f0:	8b 45 10             	mov    0x10(%ebp),%eax
c01017f3:	83 e0 6c             	and    $0x6c,%eax
c01017f6:	83 f8 6c             	cmp    $0x6c,%eax
c01017f9:	74 4d                	je     c0101848 <arch_vas_map+0xbd>
c01017fb:	83 f8 6c             	cmp    $0x6c,%eax
c01017fe:	77 4e                	ja     c010184e <arch_vas_map+0xc3>
c0101800:	83 f8 68             	cmp    $0x68,%eax
c0101803:	74 43                	je     c0101848 <arch_vas_map+0xbd>
c0101805:	83 f8 68             	cmp    $0x68,%eax
c0101808:	77 44                	ja     c010184e <arch_vas_map+0xc3>
c010180a:	83 f8 4c             	cmp    $0x4c,%eax
c010180d:	74 39                	je     c0101848 <arch_vas_map+0xbd>
c010180f:	83 f8 4c             	cmp    $0x4c,%eax
c0101812:	77 3a                	ja     c010184e <arch_vas_map+0xc3>
c0101814:	83 f8 2c             	cmp    $0x2c,%eax
c0101817:	77 16                	ja     c010182f <arch_vas_map+0xa4>
c0101819:	83 f8 04             	cmp    $0x4,%eax
c010181c:	72 30                	jb     c010184e <arch_vas_map+0xc3>
c010181e:	83 e8 04             	sub    $0x4,%eax
c0101821:	83 f8 28             	cmp    $0x28,%eax
c0101824:	77 28                	ja     c010184e <arch_vas_map+0xc3>
c0101826:	8b 04 85 08 21 10 c0 	mov    -0x3fefdef8(,%eax,4),%eax
c010182d:	ff e0                	jmp    *%eax
c010182f:	83 f8 48             	cmp    $0x48,%eax
c0101832:	74 14                	je     c0101848 <arch_vas_map+0xbd>
c0101834:	eb 18                	jmp    c010184e <arch_vas_map+0xc3>
c0101836:	83 4d f4 06          	orl    $0x6,-0xc(%ebp)
c010183a:	eb 1a                	jmp    c0101856 <arch_vas_map+0xcb>
c010183c:	83 4d f4 02          	orl    $0x2,-0xc(%ebp)
c0101840:	eb 14                	jmp    c0101856 <arch_vas_map+0xcb>
c0101842:	83 4d f4 06          	orl    $0x6,-0xc(%ebp)
c0101846:	eb 0e                	jmp    c0101856 <arch_vas_map+0xcb>
c0101848:	83 4d f4 06          	orl    $0x6,-0xc(%ebp)
c010184c:	eb 08                	jmp    c0101856 <arch_vas_map+0xcb>
c010184e:	b8 01 00 00 00       	mov    $0x1,%eax
c0101853:	eb 1d                	jmp    c0101872 <arch_vas_map+0xe7>
c0101855:	90                   	nop
c0101856:	8b 45 f0             	mov    -0x10(%ebp),%eax
c0101859:	c1 e0 02             	shl    $0x2,%eax
c010185c:	8d 90 00 00 c0 ff    	lea    -0x400000(%eax),%edx
c0101862:	8b 45 f4             	mov    -0xc(%ebp),%eax
c0101865:	89 02                	mov    %eax,(%edx)
c0101867:	0f 20 d8             	mov    %cr3,%eax
c010186a:	0f 22 d8             	mov    %eax,%cr3
c010186d:	b8 00 00 00 00       	mov    $0x0,%eax
c0101872:	c9                   	leave  
c0101873:	c3                   	ret    

c0101874 <arch_vas_unmap>:
c0101874:	55                   	push   %ebp
c0101875:	89 e5                	mov    %esp,%ebp
c0101877:	83 ec 10             	sub    $0x10,%esp
c010187a:	8b 45 08             	mov    0x8(%ebp),%eax
c010187d:	c1 e8 0c             	shr    $0xc,%eax
c0101880:	89 45 fc             	mov    %eax,-0x4(%ebp)
c0101883:	8b 45 fc             	mov    -0x4(%ebp),%eax
c0101886:	c1 e8 0a             	shr    $0xa,%eax
c0101889:	89 45 f8             	mov    %eax,-0x8(%ebp)
c010188c:	8b 45 f8             	mov    -0x8(%ebp),%eax
c010188f:	c1 e0 02             	shl    $0x2,%eax
c0101892:	2d 00 10 00 00       	sub    $0x1000,%eax
c0101897:	8b 00                	mov    (%eax),%eax
c0101899:	89 45 f4             	mov    %eax,-0xc(%ebp)
c010189c:	83 7d f4 00          	cmpl   $0x0,-0xc(%ebp)
c01018a0:	75 07                	jne    c01018a9 <arch_vas_unmap+0x35>
c01018a2:	b8 01 00 00 00       	mov    $0x1,%eax
c01018a7:	eb 16                	jmp    c01018bf <arch_vas_unmap+0x4b>
c01018a9:	8b 45 fc             	mov    -0x4(%ebp),%eax
c01018ac:	c1 e0 02             	shl    $0x2,%eax
c01018af:	2d 00 00 40 00       	sub    $0x400000,%eax
c01018b4:	c7 00 00 00 00 00    	movl   $0x0,(%eax)
c01018ba:	b8 00 00 00 00       	mov    $0x0,%eax
c01018bf:	c9                   	leave  
c01018c0:	c3                   	ret    

c01018c1 <pit_isr>:
c01018c1:	55                   	push   %ebp
c01018c2:	89 e5                	mov    %esp,%ebp
c01018c4:	51                   	push   %ecx
c01018c5:	52                   	push   %edx
c01018c6:	50                   	push   %eax
c01018c7:	83 e4 f0             	and    $0xfffffff0,%esp
c01018ca:	83 ec 10             	sub    $0x10,%esp
c01018cd:	8d 45 04             	lea    0x4(%ebp),%eax
c01018d0:	89 44 24 0c          	mov    %eax,0xc(%esp)
c01018d4:	fc                   	cld    
c01018d5:	e8 b8 f4 ff ff       	call   c0100d92 <sysclock_cb>
c01018da:	e8 b0 01 00 00       	call   c0101a8f <pic_ack>
c01018df:	90                   	nop
c01018e0:	8d 65 f4             	lea    -0xc(%ebp),%esp
c01018e3:	58                   	pop    %eax
c01018e4:	5a                   	pop    %edx
c01018e5:	59                   	pop    %ecx
c01018e6:	5d                   	pop    %ebp
c01018e7:	cf                   	iret   

c01018e8 <arch_sysclock_init>:
c01018e8:	55                   	push   %ebp
c01018e9:	89 e5                	mov    %esp,%ebp
c01018eb:	83 ec 18             	sub    $0x18,%esp
c01018ee:	66 c7 45 f6 9b 2e    	movw   $0x2e9b,-0xa(%ebp)
c01018f4:	83 ec 08             	sub    $0x8,%esp
c01018f7:	6a 36                	push   $0x36
c01018f9:	6a 43                	push   $0x43
c01018fb:	e8 fc f6 ff ff       	call   c0100ffc <io_outb>
c0101900:	83 c4 10             	add    $0x10,%esp
c0101903:	0f b7 45 f6          	movzwl -0xa(%ebp),%eax
c0101907:	83 ec 08             	sub    $0x8,%esp
c010190a:	50                   	push   %eax
c010190b:	6a 40                	push   $0x40
c010190d:	e8 ea f6 ff ff       	call   c0100ffc <io_outb>
c0101912:	83 c4 10             	add    $0x10,%esp
c0101915:	66 8b 45 f6          	mov    -0xa(%ebp),%ax
c0101919:	66 c1 e8 08          	shr    $0x8,%ax
c010191d:	0f b7 c0             	movzwl %ax,%eax
c0101920:	83 ec 08             	sub    $0x8,%esp
c0101923:	50                   	push   %eax
c0101924:	6a 40                	push   $0x40
c0101926:	e8 d1 f6 ff ff       	call   c0100ffc <io_outb>
c010192b:	83 c4 10             	add    $0x10,%esp
c010192e:	90                   	nop
c010192f:	c9                   	leave  
c0101930:	c3                   	ret    

c0101931 <arch_sysclock_enable>:
c0101931:	55                   	push   %ebp
c0101932:	89 e5                	mov    %esp,%ebp
c0101934:	83 ec 08             	sub    $0x8,%esp
c0101937:	83 ec 04             	sub    $0x4,%esp
c010193a:	6a 03                	push   $0x3
c010193c:	68 c1 18 10 c0       	push   $0xc01018c1
c0101941:	6a 20                	push   $0x20
c0101943:	e8 91 01 00 00       	call   c0101ad9 <idt_set_interrupt_gate>
c0101948:	83 c4 10             	add    $0x10,%esp
c010194b:	90                   	nop
c010194c:	c9                   	leave  
c010194d:	c3                   	ret    

c010194e <arch_sysclock_disable>:
c010194e:	55                   	push   %ebp
c010194f:	89 e5                	mov    %esp,%ebp
c0101951:	83 ec 08             	sub    $0x8,%esp
c0101954:	83 ec 04             	sub    $0x4,%esp
c0101957:	6a 03                	push   $0x3
c0101959:	68 6b 19 10 c0       	push   $0xc010196b
c010195e:	6a 20                	push   $0x20
c0101960:	e8 74 01 00 00       	call   c0101ad9 <idt_set_interrupt_gate>
c0101965:	83 c4 10             	add    $0x10,%esp
c0101968:	90                   	nop
c0101969:	c9                   	leave  
c010196a:	c3                   	ret    

c010196b <pic_empty_isr>:
c010196b:	55                   	push   %ebp
c010196c:	89 e5                	mov    %esp,%ebp
c010196e:	51                   	push   %ecx
c010196f:	52                   	push   %edx
c0101970:	50                   	push   %eax
c0101971:	83 e4 f0             	and    $0xfffffff0,%esp
c0101974:	83 ec 10             	sub    $0x10,%esp
c0101977:	8d 45 04             	lea    0x4(%ebp),%eax
c010197a:	89 44 24 0c          	mov    %eax,0xc(%esp)
c010197e:	fc                   	cld    
c010197f:	e8 0b 01 00 00       	call   c0101a8f <pic_ack>
c0101984:	90                   	nop
c0101985:	8d 65 f4             	lea    -0xc(%ebp),%esp
c0101988:	58                   	pop    %eax
c0101989:	5a                   	pop    %edx
c010198a:	59                   	pop    %ecx
c010198b:	5d                   	pop    %ebp
c010198c:	cf                   	iret   

c010198d <pic_init>:
c010198d:	55                   	push   %ebp
c010198e:	89 e5                	mov    %esp,%ebp
c0101990:	83 ec 18             	sub    $0x18,%esp
c0101993:	83 ec 0c             	sub    $0xc,%esp
c0101996:	6a 21                	push   $0x21
c0101998:	e8 87 f6 ff ff       	call   c0101024 <io_inb>
c010199d:	83 c4 10             	add    $0x10,%esp
c01019a0:	88 45 f6             	mov    %al,-0xa(%ebp)
c01019a3:	83 ec 0c             	sub    $0xc,%esp
c01019a6:	68 a1 00 00 00       	push   $0xa1
c01019ab:	e8 74 f6 ff ff       	call   c0101024 <io_inb>
c01019b0:	83 c4 10             	add    $0x10,%esp
c01019b3:	88 45 f5             	mov    %al,-0xb(%ebp)
c01019b6:	83 ec 08             	sub    $0x8,%esp
c01019b9:	6a 11                	push   $0x11
c01019bb:	6a 20                	push   $0x20
c01019bd:	e8 3a f6 ff ff       	call   c0100ffc <io_outb>
c01019c2:	83 c4 10             	add    $0x10,%esp
c01019c5:	83 ec 08             	sub    $0x8,%esp
c01019c8:	6a 11                	push   $0x11
c01019ca:	68 a0 00 00 00       	push   $0xa0
c01019cf:	e8 28 f6 ff ff       	call   c0100ffc <io_outb>
c01019d4:	83 c4 10             	add    $0x10,%esp
c01019d7:	83 ec 08             	sub    $0x8,%esp
c01019da:	6a 20                	push   $0x20
c01019dc:	6a 21                	push   $0x21
c01019de:	e8 19 f6 ff ff       	call   c0100ffc <io_outb>
c01019e3:	83 c4 10             	add    $0x10,%esp
c01019e6:	83 ec 08             	sub    $0x8,%esp
c01019e9:	6a 28                	push   $0x28
c01019eb:	68 a1 00 00 00       	push   $0xa1
c01019f0:	e8 07 f6 ff ff       	call   c0100ffc <io_outb>
c01019f5:	83 c4 10             	add    $0x10,%esp
c01019f8:	83 ec 08             	sub    $0x8,%esp
c01019fb:	6a 04                	push   $0x4
c01019fd:	6a 21                	push   $0x21
c01019ff:	e8 f8 f5 ff ff       	call   c0100ffc <io_outb>
c0101a04:	83 c4 10             	add    $0x10,%esp
c0101a07:	83 ec 08             	sub    $0x8,%esp
c0101a0a:	6a 02                	push   $0x2
c0101a0c:	68 a1 00 00 00       	push   $0xa1
c0101a11:	e8 e6 f5 ff ff       	call   c0100ffc <io_outb>
c0101a16:	83 c4 10             	add    $0x10,%esp
c0101a19:	83 ec 08             	sub    $0x8,%esp
c0101a1c:	6a 01                	push   $0x1
c0101a1e:	6a 21                	push   $0x21
c0101a20:	e8 d7 f5 ff ff       	call   c0100ffc <io_outb>
c0101a25:	83 c4 10             	add    $0x10,%esp
c0101a28:	83 ec 08             	sub    $0x8,%esp
c0101a2b:	6a 01                	push   $0x1
c0101a2d:	68 a1 00 00 00       	push   $0xa1
c0101a32:	e8 c5 f5 ff ff       	call   c0100ffc <io_outb>
c0101a37:	83 c4 10             	add    $0x10,%esp
c0101a3a:	0f b6 45 f6          	movzbl -0xa(%ebp),%eax
c0101a3e:	83 ec 08             	sub    $0x8,%esp
c0101a41:	50                   	push   %eax
c0101a42:	6a 21                	push   $0x21
c0101a44:	e8 b3 f5 ff ff       	call   c0100ffc <io_outb>
c0101a49:	83 c4 10             	add    $0x10,%esp
c0101a4c:	0f b6 45 f5          	movzbl -0xb(%ebp),%eax
c0101a50:	83 ec 08             	sub    $0x8,%esp
c0101a53:	50                   	push   %eax
c0101a54:	68 a1 00 00 00       	push   $0xa1
c0101a59:	e8 9e f5 ff ff       	call   c0100ffc <io_outb>
c0101a5e:	83 c4 10             	add    $0x10,%esp
c0101a61:	c6 45 f7 20          	movb   $0x20,-0x9(%ebp)
c0101a65:	eb 1e                	jmp    c0101a85 <pic_init+0xf8>
c0101a67:	0f b6 45 f7          	movzbl -0x9(%ebp),%eax
c0101a6b:	83 ec 04             	sub    $0x4,%esp
c0101a6e:	6a 03                	push   $0x3
c0101a70:	68 6b 19 10 c0       	push   $0xc010196b
c0101a75:	50                   	push   %eax
c0101a76:	e8 5e 00 00 00       	call   c0101ad9 <idt_set_interrupt_gate>
c0101a7b:	83 c4 10             	add    $0x10,%esp
c0101a7e:	8a 45 f7             	mov    -0x9(%ebp),%al
c0101a81:	40                   	inc    %eax
c0101a82:	88 45 f7             	mov    %al,-0x9(%ebp)
c0101a85:	80 7d f7 2f          	cmpb   $0x2f,-0x9(%ebp)
c0101a89:	76 dc                	jbe    c0101a67 <pic_init+0xda>
c0101a8b:	90                   	nop
c0101a8c:	90                   	nop
c0101a8d:	c9                   	leave  
c0101a8e:	c3                   	ret    

c0101a8f <pic_ack>:
c0101a8f:	55                   	push   %ebp
c0101a90:	89 e5                	mov    %esp,%ebp
c0101a92:	83 ec 08             	sub    $0x8,%esp
c0101a95:	83 ec 08             	sub    $0x8,%esp
c0101a98:	6a 20                	push   $0x20
c0101a9a:	68 a0 00 00 00       	push   $0xa0
c0101a9f:	e8 58 f5 ff ff       	call   c0100ffc <io_outb>
c0101aa4:	83 c4 10             	add    $0x10,%esp
c0101aa7:	83 ec 08             	sub    $0x8,%esp
c0101aaa:	6a 20                	push   $0x20
c0101aac:	6a 20                	push   $0x20
c0101aae:	e8 49 f5 ff ff       	call   c0100ffc <io_outb>
c0101ab3:	83 c4 10             	add    $0x10,%esp
c0101ab6:	90                   	nop
c0101ab7:	c9                   	leave  
c0101ab8:	c3                   	ret    

c0101ab9 <idt_init>:
c0101ab9:	55                   	push   %ebp
c0101aba:	89 e5                	mov    %esp,%ebp
c0101abc:	66 c7 05 36 40 10 c0 	movw   $0x7ff,0xc0104036
c0101ac3:	ff 07 
c0101ac5:	b8 a0 b0 12 c0       	mov    $0xc012b0a0,%eax
c0101aca:	a3 38 40 10 c0       	mov    %eax,0xc0104038
c0101acf:	0f 01 1d 36 40 10 c0 	lidtl  0xc0104036
c0101ad6:	90                   	nop
c0101ad7:	5d                   	pop    %ebp
c0101ad8:	c3                   	ret    

c0101ad9 <idt_set_interrupt_gate>:
c0101ad9:	55                   	push   %ebp
c0101ada:	89 e5                	mov    %esp,%ebp
c0101adc:	83 ec 08             	sub    $0x8,%esp
c0101adf:	8b 55 08             	mov    0x8(%ebp),%edx
c0101ae2:	8b 45 10             	mov    0x10(%ebp),%eax
c0101ae5:	88 55 fc             	mov    %dl,-0x4(%ebp)
c0101ae8:	88 45 f8             	mov    %al,-0x8(%ebp)
c0101aeb:	8b 45 0c             	mov    0xc(%ebp),%eax
c0101aee:	0f b6 55 fc          	movzbl -0x4(%ebp),%edx
c0101af2:	66 89 04 d5 a0 b0 12 	mov    %ax,-0x3fed4f60(,%edx,8)
c0101af9:	c0 
c0101afa:	0f b6 45 fc          	movzbl -0x4(%ebp),%eax
c0101afe:	66 c7 04 c5 a2 b0 12 	movw   $0x8,-0x3fed4f5e(,%eax,8)
c0101b05:	c0 08 00 
c0101b08:	0f b6 45 fc          	movzbl -0x4(%ebp),%eax
c0101b0c:	c6 04 c5 a4 b0 12 c0 	movb   $0x0,-0x3fed4f5c(,%eax,8)
c0101b13:	00 
c0101b14:	0f b6 45 f8          	movzbl -0x8(%ebp),%eax
c0101b18:	c1 e0 05             	shl    $0x5,%eax
c0101b1b:	83 e0 60             	and    $0x60,%eax
c0101b1e:	83 c8 8e             	or     $0xffffff8e,%eax
c0101b21:	88 c2                	mov    %al,%dl
c0101b23:	0f b6 45 fc          	movzbl -0x4(%ebp),%eax
c0101b27:	88 14 c5 a5 b0 12 c0 	mov    %dl,-0x3fed4f5b(,%eax,8)
c0101b2e:	8b 45 0c             	mov    0xc(%ebp),%eax
c0101b31:	c1 e8 10             	shr    $0x10,%eax
c0101b34:	0f b6 55 fc          	movzbl -0x4(%ebp),%edx
c0101b38:	66 89 04 d5 a6 b0 12 	mov    %ax,-0x3fed4f5a(,%edx,8)
c0101b3f:	c0 
c0101b40:	90                   	nop
c0101b41:	c9                   	leave  
c0101b42:	c3                   	ret    

c0101b43 <idt_set_trap_gate>:
c0101b43:	55                   	push   %ebp
c0101b44:	89 e5                	mov    %esp,%ebp
c0101b46:	83 ec 08             	sub    $0x8,%esp
c0101b49:	8b 55 08             	mov    0x8(%ebp),%edx
c0101b4c:	8b 45 10             	mov    0x10(%ebp),%eax
c0101b4f:	88 55 fc             	mov    %dl,-0x4(%ebp)
c0101b52:	88 45 f8             	mov    %al,-0x8(%ebp)
c0101b55:	8b 45 0c             	mov    0xc(%ebp),%eax
c0101b58:	0f b6 55 fc          	movzbl -0x4(%ebp),%edx
c0101b5c:	66 89 04 d5 a0 b0 12 	mov    %ax,-0x3fed4f60(,%edx,8)
c0101b63:	c0 
c0101b64:	0f b6 45 fc          	movzbl -0x4(%ebp),%eax
c0101b68:	66 c7 04 c5 a2 b0 12 	movw   $0x8,-0x3fed4f5e(,%eax,8)
c0101b6f:	c0 08 00 
c0101b72:	0f b6 45 fc          	movzbl -0x4(%ebp),%eax
c0101b76:	c6 04 c5 a4 b0 12 c0 	movb   $0x0,-0x3fed4f5c(,%eax,8)
c0101b7d:	00 
c0101b7e:	0f b6 45 f8          	movzbl -0x8(%ebp),%eax
c0101b82:	c1 e0 05             	shl    $0x5,%eax
c0101b85:	83 e0 60             	and    $0x60,%eax
c0101b88:	83 c8 8f             	or     $0xffffff8f,%eax
c0101b8b:	88 c2                	mov    %al,%dl
c0101b8d:	0f b6 45 fc          	movzbl -0x4(%ebp),%eax
c0101b91:	88 14 c5 a5 b0 12 c0 	mov    %dl,-0x3fed4f5b(,%eax,8)
c0101b98:	8b 45 0c             	mov    0xc(%ebp),%eax
c0101b9b:	c1 e8 10             	shr    $0x10,%eax
c0101b9e:	0f b6 55 fc          	movzbl -0x4(%ebp),%edx
c0101ba2:	66 89 04 d5 a6 b0 12 	mov    %ax,-0x3fed4f5a(,%edx,8)
c0101ba9:	c0 
c0101baa:	90                   	nop
c0101bab:	c9                   	leave  
c0101bac:	c3                   	ret    

c0101bad <cpu_enable_interrupts>:
c0101bad:	55                   	push   %ebp
c0101bae:	89 e5                	mov    %esp,%ebp
c0101bb0:	fb                   	sti    
c0101bb1:	90                   	nop
c0101bb2:	5d                   	pop    %ebp
c0101bb3:	c3                   	ret    

c0101bb4 <cpu_disable_interrupts>:
c0101bb4:	55                   	push   %ebp
c0101bb5:	89 e5                	mov    %esp,%ebp
c0101bb7:	fa                   	cli    
c0101bb8:	90                   	nop
c0101bb9:	5d                   	pop    %ebp
c0101bba:	c3                   	ret    
c0101bbb:	90                   	nop

c0101bbc <__udivdi3>:
c0101bbc:	55                   	push   %ebp
c0101bbd:	89 e5                	mov    %esp,%ebp
c0101bbf:	57                   	push   %edi
c0101bc0:	56                   	push   %esi
c0101bc1:	53                   	push   %ebx
c0101bc2:	83 ec 1c             	sub    $0x1c,%esp
c0101bc5:	8b 7d 08             	mov    0x8(%ebp),%edi
c0101bc8:	89 7d e4             	mov    %edi,-0x1c(%ebp)
c0101bcb:	8b 75 0c             	mov    0xc(%ebp),%esi
c0101bce:	8b 5d 10             	mov    0x10(%ebp),%ebx
c0101bd1:	8b 45 14             	mov    0x14(%ebp),%eax
c0101bd4:	85 c0                	test   %eax,%eax
c0101bd6:	75 18                	jne    c0101bf0 <__udivdi3+0x34>
c0101bd8:	39 f3                	cmp    %esi,%ebx
c0101bda:	76 44                	jbe    c0101c20 <__udivdi3+0x64>
c0101bdc:	89 f8                	mov    %edi,%eax
c0101bde:	89 f2                	mov    %esi,%edx
c0101be0:	f7 f3                	div    %ebx
c0101be2:	31 ff                	xor    %edi,%edi
c0101be4:	89 fa                	mov    %edi,%edx
c0101be6:	83 c4 1c             	add    $0x1c,%esp
c0101be9:	5b                   	pop    %ebx
c0101bea:	5e                   	pop    %esi
c0101beb:	5f                   	pop    %edi
c0101bec:	5d                   	pop    %ebp
c0101bed:	c3                   	ret    
c0101bee:	66 90                	xchg   %ax,%ax
c0101bf0:	39 f0                	cmp    %esi,%eax
c0101bf2:	76 10                	jbe    c0101c04 <__udivdi3+0x48>
c0101bf4:	31 ff                	xor    %edi,%edi
c0101bf6:	31 c0                	xor    %eax,%eax
c0101bf8:	89 fa                	mov    %edi,%edx
c0101bfa:	83 c4 1c             	add    $0x1c,%esp
c0101bfd:	5b                   	pop    %ebx
c0101bfe:	5e                   	pop    %esi
c0101bff:	5f                   	pop    %edi
c0101c00:	5d                   	pop    %ebp
c0101c01:	c3                   	ret    
c0101c02:	66 90                	xchg   %ax,%ax
c0101c04:	0f bd f8             	bsr    %eax,%edi
c0101c07:	83 f7 1f             	xor    $0x1f,%edi
c0101c0a:	75 40                	jne    c0101c4c <__udivdi3+0x90>
c0101c0c:	39 f0                	cmp    %esi,%eax
c0101c0e:	72 09                	jb     c0101c19 <__udivdi3+0x5d>
c0101c10:	3b 5d e4             	cmp    -0x1c(%ebp),%ebx
c0101c13:	0f 87 a3 00 00 00    	ja     c0101cbc <__udivdi3+0x100>
c0101c19:	b8 01 00 00 00       	mov    $0x1,%eax
c0101c1e:	eb d8                	jmp    c0101bf8 <__udivdi3+0x3c>
c0101c20:	89 d9                	mov    %ebx,%ecx
c0101c22:	85 db                	test   %ebx,%ebx
c0101c24:	75 0b                	jne    c0101c31 <__udivdi3+0x75>
c0101c26:	b8 01 00 00 00       	mov    $0x1,%eax
c0101c2b:	31 d2                	xor    %edx,%edx
c0101c2d:	f7 f3                	div    %ebx
c0101c2f:	89 c1                	mov    %eax,%ecx
c0101c31:	31 d2                	xor    %edx,%edx
c0101c33:	89 f0                	mov    %esi,%eax
c0101c35:	f7 f1                	div    %ecx
c0101c37:	89 c6                	mov    %eax,%esi
c0101c39:	8b 45 e4             	mov    -0x1c(%ebp),%eax
c0101c3c:	f7 f1                	div    %ecx
c0101c3e:	89 f7                	mov    %esi,%edi
c0101c40:	89 fa                	mov    %edi,%edx
c0101c42:	83 c4 1c             	add    $0x1c,%esp
c0101c45:	5b                   	pop    %ebx
c0101c46:	5e                   	pop    %esi
c0101c47:	5f                   	pop    %edi
c0101c48:	5d                   	pop    %ebp
c0101c49:	c3                   	ret    
c0101c4a:	66 90                	xchg   %ax,%ax
c0101c4c:	ba 20 00 00 00       	mov    $0x20,%edx
c0101c51:	29 fa                	sub    %edi,%edx
c0101c53:	89 f9                	mov    %edi,%ecx
c0101c55:	d3 e0                	shl    %cl,%eax
c0101c57:	89 45 e0             	mov    %eax,-0x20(%ebp)
c0101c5a:	89 d8                	mov    %ebx,%eax
c0101c5c:	88 d1                	mov    %dl,%cl
c0101c5e:	d3 e8                	shr    %cl,%eax
c0101c60:	8b 4d e0             	mov    -0x20(%ebp),%ecx
c0101c63:	09 c1                	or     %eax,%ecx
c0101c65:	89 4d e0             	mov    %ecx,-0x20(%ebp)
c0101c68:	89 f9                	mov    %edi,%ecx
c0101c6a:	d3 e3                	shl    %cl,%ebx
c0101c6c:	89 5d dc             	mov    %ebx,-0x24(%ebp)
c0101c6f:	89 f0                	mov    %esi,%eax
c0101c71:	88 d1                	mov    %dl,%cl
c0101c73:	d3 e8                	shr    %cl,%eax
c0101c75:	89 45 d8             	mov    %eax,-0x28(%ebp)
c0101c78:	89 f9                	mov    %edi,%ecx
c0101c7a:	d3 e6                	shl    %cl,%esi
c0101c7c:	8b 5d e4             	mov    -0x1c(%ebp),%ebx
c0101c7f:	88 d1                	mov    %dl,%cl
c0101c81:	d3 eb                	shr    %cl,%ebx
c0101c83:	89 d8                	mov    %ebx,%eax
c0101c85:	09 f0                	or     %esi,%eax
c0101c87:	8b 55 d8             	mov    -0x28(%ebp),%edx
c0101c8a:	f7 75 e0             	divl   -0x20(%ebp)
c0101c8d:	89 d1                	mov    %edx,%ecx
c0101c8f:	89 c3                	mov    %eax,%ebx
c0101c91:	f7 65 dc             	mull   -0x24(%ebp)
c0101c94:	39 d1                	cmp    %edx,%ecx
c0101c96:	72 18                	jb     c0101cb0 <__udivdi3+0xf4>
c0101c98:	74 0a                	je     c0101ca4 <__udivdi3+0xe8>
c0101c9a:	89 d8                	mov    %ebx,%eax
c0101c9c:	31 ff                	xor    %edi,%edi
c0101c9e:	e9 55 ff ff ff       	jmp    c0101bf8 <__udivdi3+0x3c>
c0101ca3:	90                   	nop
c0101ca4:	8b 55 e4             	mov    -0x1c(%ebp),%edx
c0101ca7:	89 f9                	mov    %edi,%ecx
c0101ca9:	d3 e2                	shl    %cl,%edx
c0101cab:	39 c2                	cmp    %eax,%edx
c0101cad:	73 eb                	jae    c0101c9a <__udivdi3+0xde>
c0101caf:	90                   	nop
c0101cb0:	8d 43 ff             	lea    -0x1(%ebx),%eax
c0101cb3:	31 ff                	xor    %edi,%edi
c0101cb5:	e9 3e ff ff ff       	jmp    c0101bf8 <__udivdi3+0x3c>
c0101cba:	66 90                	xchg   %ax,%ax
c0101cbc:	31 c0                	xor    %eax,%eax
c0101cbe:	e9 35 ff ff ff       	jmp    c0101bf8 <__udivdi3+0x3c>
c0101cc3:	90                   	nop

c0101cc4 <__umoddi3>:
c0101cc4:	55                   	push   %ebp
c0101cc5:	89 e5                	mov    %esp,%ebp
c0101cc7:	57                   	push   %edi
c0101cc8:	56                   	push   %esi
c0101cc9:	53                   	push   %ebx
c0101cca:	83 ec 1c             	sub    $0x1c,%esp
c0101ccd:	8b 7d 08             	mov    0x8(%ebp),%edi
c0101cd0:	8b 5d 0c             	mov    0xc(%ebp),%ebx
c0101cd3:	8b 75 10             	mov    0x10(%ebp),%esi
c0101cd6:	8b 45 14             	mov    0x14(%ebp),%eax
c0101cd9:	89 7d e4             	mov    %edi,-0x1c(%ebp)
c0101cdc:	89 da                	mov    %ebx,%edx
c0101cde:	85 c0                	test   %eax,%eax
c0101ce0:	75 16                	jne    c0101cf8 <__umoddi3+0x34>
c0101ce2:	39 de                	cmp    %ebx,%esi
c0101ce4:	76 4e                	jbe    c0101d34 <__umoddi3+0x70>
c0101ce6:	89 f8                	mov    %edi,%eax
c0101ce8:	f7 f6                	div    %esi
c0101cea:	89 d0                	mov    %edx,%eax
c0101cec:	31 d2                	xor    %edx,%edx
c0101cee:	83 c4 1c             	add    $0x1c,%esp
c0101cf1:	5b                   	pop    %ebx
c0101cf2:	5e                   	pop    %esi
c0101cf3:	5f                   	pop    %edi
c0101cf4:	5d                   	pop    %ebp
c0101cf5:	c3                   	ret    
c0101cf6:	66 90                	xchg   %ax,%ax
c0101cf8:	39 d8                	cmp    %ebx,%eax
c0101cfa:	76 0c                	jbe    c0101d08 <__umoddi3+0x44>
c0101cfc:	89 f8                	mov    %edi,%eax
c0101cfe:	83 c4 1c             	add    $0x1c,%esp
c0101d01:	5b                   	pop    %ebx
c0101d02:	5e                   	pop    %esi
c0101d03:	5f                   	pop    %edi
c0101d04:	5d                   	pop    %ebp
c0101d05:	c3                   	ret    
c0101d06:	66 90                	xchg   %ax,%ax
c0101d08:	0f bd c8             	bsr    %eax,%ecx
c0101d0b:	83 f1 1f             	xor    $0x1f,%ecx
c0101d0e:	89 4d e0             	mov    %ecx,-0x20(%ebp)
c0101d11:	75 41                	jne    c0101d54 <__umoddi3+0x90>
c0101d13:	39 d8                	cmp    %ebx,%eax
c0101d15:	72 04                	jb     c0101d1b <__umoddi3+0x57>
c0101d17:	39 fe                	cmp    %edi,%esi
c0101d19:	77 0d                	ja     c0101d28 <__umoddi3+0x64>
c0101d1b:	89 d9                	mov    %ebx,%ecx
c0101d1d:	89 fa                	mov    %edi,%edx
c0101d1f:	29 f2                	sub    %esi,%edx
c0101d21:	19 c1                	sbb    %eax,%ecx
c0101d23:	89 55 e4             	mov    %edx,-0x1c(%ebp)
c0101d26:	89 ca                	mov    %ecx,%edx
c0101d28:	8b 45 e4             	mov    -0x1c(%ebp),%eax
c0101d2b:	83 c4 1c             	add    $0x1c,%esp
c0101d2e:	5b                   	pop    %ebx
c0101d2f:	5e                   	pop    %esi
c0101d30:	5f                   	pop    %edi
c0101d31:	5d                   	pop    %ebp
c0101d32:	c3                   	ret    
c0101d33:	90                   	nop
c0101d34:	89 f1                	mov    %esi,%ecx
c0101d36:	85 f6                	test   %esi,%esi
c0101d38:	75 0b                	jne    c0101d45 <__umoddi3+0x81>
c0101d3a:	b8 01 00 00 00       	mov    $0x1,%eax
c0101d3f:	31 d2                	xor    %edx,%edx
c0101d41:	f7 f6                	div    %esi
c0101d43:	89 c1                	mov    %eax,%ecx
c0101d45:	89 d8                	mov    %ebx,%eax
c0101d47:	31 d2                	xor    %edx,%edx
c0101d49:	f7 f1                	div    %ecx
c0101d4b:	89 f8                	mov    %edi,%eax
c0101d4d:	f7 f1                	div    %ecx
c0101d4f:	eb 99                	jmp    c0101cea <__umoddi3+0x26>
c0101d51:	8d 76 00             	lea    0x0(%esi),%esi
c0101d54:	ba 20 00 00 00       	mov    $0x20,%edx
c0101d59:	8b 4d e0             	mov    -0x20(%ebp),%ecx
c0101d5c:	29 ca                	sub    %ecx,%edx
c0101d5e:	d3 e0                	shl    %cl,%eax
c0101d60:	89 45 dc             	mov    %eax,-0x24(%ebp)
c0101d63:	89 f0                	mov    %esi,%eax
c0101d65:	89 55 e4             	mov    %edx,-0x1c(%ebp)
c0101d68:	88 d1                	mov    %dl,%cl
c0101d6a:	d3 e8                	shr    %cl,%eax
c0101d6c:	8b 4d dc             	mov    -0x24(%ebp),%ecx
c0101d6f:	09 c1                	or     %eax,%ecx
c0101d71:	89 4d dc             	mov    %ecx,-0x24(%ebp)
c0101d74:	8b 45 e0             	mov    -0x20(%ebp),%eax
c0101d77:	88 c1                	mov    %al,%cl
c0101d79:	d3 e6                	shl    %cl,%esi
c0101d7b:	89 75 d8             	mov    %esi,-0x28(%ebp)
c0101d7e:	89 de                	mov    %ebx,%esi
c0101d80:	8b 55 e4             	mov    -0x1c(%ebp),%edx
c0101d83:	88 d1                	mov    %dl,%cl
c0101d85:	d3 ee                	shr    %cl,%esi
c0101d87:	88 c1                	mov    %al,%cl
c0101d89:	d3 e3                	shl    %cl,%ebx
c0101d8b:	89 f8                	mov    %edi,%eax
c0101d8d:	88 d1                	mov    %dl,%cl
c0101d8f:	d3 e8                	shr    %cl,%eax
c0101d91:	09 d8                	or     %ebx,%eax
c0101d93:	8a 4d e0             	mov    -0x20(%ebp),%cl
c0101d96:	d3 e7                	shl    %cl,%edi
c0101d98:	89 f2                	mov    %esi,%edx
c0101d9a:	f7 75 dc             	divl   -0x24(%ebp)
c0101d9d:	89 d3                	mov    %edx,%ebx
c0101d9f:	f7 65 d8             	mull   -0x28(%ebp)
c0101da2:	89 c6                	mov    %eax,%esi
c0101da4:	89 d1                	mov    %edx,%ecx
c0101da6:	39 d3                	cmp    %edx,%ebx
c0101da8:	72 2a                	jb     c0101dd4 <__umoddi3+0x110>
c0101daa:	74 24                	je     c0101dd0 <__umoddi3+0x10c>
c0101dac:	89 f8                	mov    %edi,%eax
c0101dae:	29 f0                	sub    %esi,%eax
c0101db0:	19 cb                	sbb    %ecx,%ebx
c0101db2:	89 da                	mov    %ebx,%edx
c0101db4:	8a 4d e4             	mov    -0x1c(%ebp),%cl
c0101db7:	d3 e2                	shl    %cl,%edx
c0101db9:	8b 7d e0             	mov    -0x20(%ebp),%edi
c0101dbc:	89 f9                	mov    %edi,%ecx
c0101dbe:	d3 e8                	shr    %cl,%eax
c0101dc0:	09 d0                	or     %edx,%eax
c0101dc2:	d3 eb                	shr    %cl,%ebx
c0101dc4:	89 da                	mov    %ebx,%edx
c0101dc6:	83 c4 1c             	add    $0x1c,%esp
c0101dc9:	5b                   	pop    %ebx
c0101dca:	5e                   	pop    %esi
c0101dcb:	5f                   	pop    %edi
c0101dcc:	5d                   	pop    %ebp
c0101dcd:	c3                   	ret    
c0101dce:	66 90                	xchg   %ax,%ax
c0101dd0:	39 c7                	cmp    %eax,%edi
c0101dd2:	73 d8                	jae    c0101dac <__umoddi3+0xe8>
c0101dd4:	2b 45 d8             	sub    -0x28(%ebp),%eax
c0101dd7:	1b 55 dc             	sbb    -0x24(%ebp),%edx
c0101dda:	89 d1                	mov    %edx,%ecx
c0101ddc:	89 c6                	mov    %eax,%esi
c0101dde:	eb cc                	jmp    c0101dac <__umoddi3+0xe8>
c0101de0:	0d 25 38 64 00       	or     $0x643825,%eax
c0101de5:	66 90                	xchg   %ax,%ax
c0101de7:	90                   	nop
c0101de8:	28 6e 75             	sub    %ch,0x75(%esi)
c0101deb:	6c                   	insb   (%dx),%es:(%edi)
c0101dec:	6c                   	insb   (%dx),%es:(%edi)
c0101ded:	29 00                	sub    %eax,(%eax)
c0101def:	00 35 05 10 c0 23    	add    %dh,0x23c01005
c0101df5:	0a 10                	or     (%eax),%dl
c0101df7:	c0 23 0a             	shlb   $0xa,(%ebx)
c0101dfa:	10 c0                	adc    %al,%al
c0101dfc:	23 0a                	and    (%edx),%ecx
c0101dfe:	10 c0                	adc    %al,%al
c0101e00:	23 0a                	and    (%edx),%ecx
c0101e02:	10 c0                	adc    %al,%al
c0101e04:	23 0a                	and    (%edx),%ecx
c0101e06:	10 c0                	adc    %al,%al
c0101e08:	23 0a                	and    (%edx),%ecx
c0101e0a:	10 c0                	adc    %al,%al
c0101e0c:	23 0a                	and    (%edx),%ecx
c0101e0e:	10 c0                	adc    %al,%al
c0101e10:	23 0a                	and    (%edx),%ecx
c0101e12:	10 c0                	adc    %al,%al
c0101e14:	23 0a                	and    (%edx),%ecx
c0101e16:	10 c0                	adc    %al,%al
c0101e18:	23 0a                	and    (%edx),%ecx
c0101e1a:	10 c0                	adc    %al,%al
c0101e1c:	6c                   	insb   (%dx),%es:(%edi)
c0101e1d:	05 10 c0 94 04       	add    $0x494c010,%eax
c0101e22:	10 c0                	adc    %al,%al
c0101e24:	23 0a                	and    (%edx),%ecx
c0101e26:	10 c0                	adc    %al,%al
c0101e28:	23 0a                	and    (%edx),%ecx
c0101e2a:	10 c0                	adc    %al,%al
c0101e2c:	23 0a                	and    (%edx),%ecx
c0101e2e:	10 c0                	adc    %al,%al
c0101e30:	fb                   	sti    
c0101e31:	07                   	pop    %es
c0101e32:	10 c0                	adc    %al,%al
c0101e34:	23 0a                	and    (%edx),%ecx
c0101e36:	10 c0                	adc    %al,%al
c0101e38:	23 0a                	and    (%edx),%ecx
c0101e3a:	10 c0                	adc    %al,%al
c0101e3c:	23 0a                	and    (%edx),%ecx
c0101e3e:	10 c0                	adc    %al,%al
c0101e40:	da 05 10 c0 23 0a    	fiaddl 0xa23c010
c0101e46:	10 c0                	adc    %al,%al
c0101e48:	23 0a                	and    (%edx),%ecx
c0101e4a:	10 c0                	adc    %al,%al
c0101e4c:	23 0a                	and    (%edx),%ecx
c0101e4e:	10 c0                	adc    %al,%al
c0101e50:	23 0a                	and    (%edx),%ecx
c0101e52:	10 c0                	adc    %al,%al
c0101e54:	23 0a                	and    (%edx),%ecx
c0101e56:	10 c0                	adc    %al,%al
c0101e58:	23 0a                	and    (%edx),%ecx
c0101e5a:	10 c0                	adc    %al,%al
c0101e5c:	a1 05 10 c0 23       	mov    0x23c01005,%eax
c0101e61:	0a 10                	or     (%eax),%dl
c0101e63:	c0 c7 04             	rol    $0x4,%bh
c0101e66:	10 c0                	adc    %al,%al
c0101e68:	23 0a                	and    (%edx),%ecx
c0101e6a:	10 c0                	adc    %al,%al
c0101e6c:	23 0a                	and    (%edx),%ecx
c0101e6e:	10 c0                	adc    %al,%al
c0101e70:	fe 04 10             	incb   (%eax,%edx,1)
c0101e73:	c0 9b 06 10 c0 f5 07 	rcrb   $0x7,-0xa3feffa(%ebx)
c0101e7a:	10 c0                	adc    %al,%al
c0101e7c:	f5                   	cmc    
c0101e7d:	07                   	pop    %es
c0101e7e:	10 c0                	adc    %al,%al
c0101e80:	f5                   	cmc    
c0101e81:	07                   	pop    %es
c0101e82:	10 c0                	adc    %al,%al
c0101e84:	f5                   	cmc    
c0101e85:	07                   	pop    %es
c0101e86:	10 c0                	adc    %al,%al
c0101e88:	f5                   	cmc    
c0101e89:	07                   	pop    %es
c0101e8a:	10 c0                	adc    %al,%al
c0101e8c:	f5                   	cmc    
c0101e8d:	07                   	pop    %es
c0101e8e:	10 c0                	adc    %al,%al
c0101e90:	f5                   	cmc    
c0101e91:	07                   	pop    %es
c0101e92:	10 c0                	adc    %al,%al
c0101e94:	f5                   	cmc    
c0101e95:	07                   	pop    %es
c0101e96:	10 c0                	adc    %al,%al
c0101e98:	f5                   	cmc    
c0101e99:	07                   	pop    %es
c0101e9a:	10 c0                	adc    %al,%al
c0101e9c:	f5                   	cmc    
c0101e9d:	07                   	pop    %es
c0101e9e:	10 c0                	adc    %al,%al
c0101ea0:	f5                   	cmc    
c0101ea1:	07                   	pop    %es
c0101ea2:	10 c0                	adc    %al,%al
c0101ea4:	fa                   	cli    
c0101ea5:	05 10 c0 f5 07       	add    $0x7f5c010,%eax
c0101eaa:	10 c0                	adc    %al,%al
c0101eac:	f5                   	cmc    
c0101ead:	07                   	pop    %es
c0101eae:	10 c0                	adc    %al,%al
c0101eb0:	f5                   	cmc    
c0101eb1:	07                   	pop    %es
c0101eb2:	10 c0                	adc    %al,%al
c0101eb4:	f5                   	cmc    
c0101eb5:	07                   	pop    %es
c0101eb6:	10 c0                	adc    %al,%al
c0101eb8:	f5                   	cmc    
c0101eb9:	07                   	pop    %es
c0101eba:	10 c0                	adc    %al,%al
c0101ebc:	f5                   	cmc    
c0101ebd:	07                   	pop    %es
c0101ebe:	10 c0                	adc    %al,%al
c0101ec0:	f5                   	cmc    
c0101ec1:	07                   	pop    %es
c0101ec2:	10 c0                	adc    %al,%al
c0101ec4:	d2 06                	rolb   %cl,(%esi)
c0101ec6:	10 c0                	adc    %al,%al
c0101ec8:	f5                   	cmc    
c0101ec9:	07                   	pop    %es
c0101eca:	10 c0                	adc    %al,%al
c0101ecc:	f5                   	cmc    
c0101ecd:	07                   	pop    %es
c0101ece:	10 c0                	adc    %al,%al
c0101ed0:	f5                   	cmc    
c0101ed1:	07                   	pop    %es
c0101ed2:	10 c0                	adc    %al,%al
c0101ed4:	f5                   	cmc    
c0101ed5:	07                   	pop    %es
c0101ed6:	10 c0                	adc    %al,%al
c0101ed8:	f5                   	cmc    
c0101ed9:	07                   	pop    %es
c0101eda:	10 c0                	adc    %al,%al
c0101edc:	f5                   	cmc    
c0101edd:	07                   	pop    %es
c0101ede:	10 c0                	adc    %al,%al
c0101ee0:	f5                   	cmc    
c0101ee1:	07                   	pop    %es
c0101ee2:	10 c0                	adc    %al,%al
c0101ee4:	f5                   	cmc    
c0101ee5:	07                   	pop    %es
c0101ee6:	10 c0                	adc    %al,%al
c0101ee8:	2d 06 10 c0 f5       	sub    $0xf5c01006,%eax
c0101eed:	07                   	pop    %es
c0101eee:	10 c0                	adc    %al,%al
c0101ef0:	f5                   	cmc    
c0101ef1:	07                   	pop    %es
c0101ef2:	10 c0                	adc    %al,%al
c0101ef4:	64 06                	fs push %es
c0101ef6:	10 c0                	adc    %al,%al
c0101ef8:	be 08 10 c0 00       	mov    $0xc01008,%esi
c0101efd:	0a 10                	or     (%eax),%dl
c0101eff:	c0 00 0a             	rolb   $0xa,(%eax)
c0101f02:	10 c0                	adc    %al,%al
c0101f04:	00 0a                	add    %cl,(%edx)
c0101f06:	10 c0                	adc    %al,%al
c0101f08:	00 0a                	add    %cl,(%edx)
c0101f0a:	10 c0                	adc    %al,%al
c0101f0c:	00 0a                	add    %cl,(%edx)
c0101f0e:	10 c0                	adc    %al,%al
c0101f10:	00 0a                	add    %cl,(%edx)
c0101f12:	10 c0                	adc    %al,%al
c0101f14:	00 0a                	add    %cl,(%edx)
c0101f16:	10 c0                	adc    %al,%al
c0101f18:	00 0a                	add    %cl,(%edx)
c0101f1a:	10 c0                	adc    %al,%al
c0101f1c:	00 0a                	add    %cl,(%edx)
c0101f1e:	10 c0                	adc    %al,%al
c0101f20:	00 0a                	add    %cl,(%edx)
c0101f22:	10 c0                	adc    %al,%al
c0101f24:	00 0a                	add    %cl,(%edx)
c0101f26:	10 c0                	adc    %al,%al
c0101f28:	1b 08                	sbb    (%eax),%ecx
c0101f2a:	10 c0                	adc    %al,%al
c0101f2c:	00 0a                	add    %cl,(%edx)
c0101f2e:	10 c0                	adc    %al,%al
c0101f30:	00 0a                	add    %cl,(%edx)
c0101f32:	10 c0                	adc    %al,%al
c0101f34:	00 0a                	add    %cl,(%edx)
c0101f36:	10 c0                	adc    %al,%al
c0101f38:	f4                   	hlt    
c0101f39:	08 10                	or     %dl,(%eax)
c0101f3b:	c0 00 0a             	rolb   $0xa,(%eax)
c0101f3e:	10 c0                	adc    %al,%al
c0101f40:	00 0a                	add    %cl,(%edx)
c0101f42:	10 c0                	adc    %al,%al
c0101f44:	00 0a                	add    %cl,(%edx)
c0101f46:	10 c0                	adc    %al,%al
c0101f48:	00 0a                	add    %cl,(%edx)
c0101f4a:	10 c0                	adc    %al,%al
c0101f4c:	00 0a                	add    %cl,(%edx)
c0101f4e:	10 c0                	adc    %al,%al
c0101f50:	00 0a                	add    %cl,(%edx)
c0101f52:	10 c0                	adc    %al,%al
c0101f54:	00 0a                	add    %cl,(%edx)
c0101f56:	10 c0                	adc    %al,%al
c0101f58:	00 0a                	add    %cl,(%edx)
c0101f5a:	10 c0                	adc    %al,%al
c0101f5c:	00 0a                	add    %cl,(%edx)
c0101f5e:	10 c0                	adc    %al,%al
c0101f60:	00 0a                	add    %cl,(%edx)
c0101f62:	10 c0                	adc    %al,%al
c0101f64:	00 0a                	add    %cl,(%edx)
c0101f66:	10 c0                	adc    %al,%al
c0101f68:	00 0a                	add    %cl,(%edx)
c0101f6a:	10 c0                	adc    %al,%al
c0101f6c:	52                   	push   %edx
c0101f6d:	08 10                	or     %dl,(%eax)
c0101f6f:	c0 00 0a             	rolb   $0xa,(%eax)
c0101f72:	10 c0                	adc    %al,%al
c0101f74:	00 0a                	add    %cl,(%edx)
c0101f76:	10 c0                	adc    %al,%al
c0101f78:	88 08                	mov    %cl,(%eax)
c0101f7a:	10 c0                	adc    %al,%al
c0101f7c:	2b 2d 2d 2d 2d 2d    	sub    0x2d2d2d2d,%ebp
c0101f82:	2d 2d 2d 2d 2d       	sub    $0x2d2d2d2d,%eax
c0101f87:	2b 2d 2d 2d 2d 2d    	sub    0x2d2d2d2d,%ebp
c0101f8d:	2d 2d 2d 2d 2d       	sub    $0x2d2d2d2d,%eax
c0101f92:	2d 2d 2d 2d 2d       	sub    $0x2d2d2d2d,%eax
c0101f97:	2d 2d 2d 2d 2d       	sub    $0x2d2d2d2d,%eax
c0101f9c:	2d 2d 2d 2d 2d       	sub    $0x2d2d2d2d,%eax
c0101fa1:	2b 2d 2d 2d 2d 2d    	sub    0x2d2d2d2d,%ebp
c0101fa7:	2d 2d 2d 2d 2d       	sub    $0x2d2d2d2d,%eax
c0101fac:	2b 0d 0a 00 7c 20    	sub    0x207c000a,%ecx
c0101fb2:	25 30 38 78 20       	and    $0x20783830,%eax
c0101fb7:	7c 20                	jl     c0101fd9 <__umoddi3+0x315>
c0101fb9:	00 25 30 32 78 20    	add    %ah,0x20783230
c0101fbf:	00 20                	add    %ah,(%eax)
c0101fc1:	20 20                	and    %ah,(%eax)
c0101fc3:	00 7c 20 00          	add    %bh,0x0(%eax,%eiz,1)
c0101fc7:	25 63 00 2e 00       	and    $0x2e0063,%eax
c0101fcc:	20 00                	and    %al,(%eax)
c0101fce:	20 7c 0d 0a          	and    %bh,0xa(%ebp,%ecx,1)
c0101fd2:	00 90 30 2e 30 2e    	add    %dl,0x2e302e30(%eax)
c0101fd8:	32 00                	xor    (%eax),%al
c0101fda:	0d 0a 53 51 55       	or     $0x5551530a,%eax
c0101fdf:	49                   	dec    %ecx
c0101fe0:	52                   	push   %edx
c0101fe1:	45                   	inc    %ebp
c0101fe2:	20 49 33             	and    %cl,0x33(%ecx)
c0101fe5:	38 36                	cmp    %dh,(%esi)
c0101fe7:	20 25 73 0d 0a 00    	and    %ah,0xa0d73
c0101fed:	00 00                	add    %al,(%eax)
c0101fef:	00 41 6d             	add    %al,0x6d(%ecx)
c0101ff2:	6f                   	outsl  %ds:(%esi),(%dx)
c0101ff3:	75 6e                	jne    c0102063 <__umoddi3+0x39f>
c0101ff5:	74 20                	je     c0102017 <__umoddi3+0x353>
c0101ff7:	6f                   	outsl  %ds:(%esi),(%dx)
c0101ff8:	66 20 61 76          	data16 and %ah,0x76(%ecx)
c0101ffc:	61                   	popa   
c0101ffd:	69 6c 61 62 6c 65 20 	imul   $0x6d20656c,0x62(%ecx,%eiz,2),%ebp
c0102004:	6d 
c0102005:	65 6d                	gs insl (%dx),%es:(%edi)
c0102007:	6f                   	outsl  %ds:(%esi),(%dx)
c0102008:	72 79                	jb     c0102083 <__umoddi3+0x3bf>
c010200a:	3a 20                	cmp    (%eax),%ah
c010200c:	20 20                	and    %ah,(%eax)
c010200e:	20 25 64 20 4b 62    	and    %ah,0x624b2064
c0102014:	0d 0a 00 00 41       	or     $0x4100000a,%eax
c0102019:	6d                   	insl   (%dx),%es:(%edi)
c010201a:	6f                   	outsl  %ds:(%esi),(%dx)
c010201b:	75 6e                	jne    c010208b <arch_pmm_framesize+0x3>
c010201d:	74 20                	je     c010203f <__umoddi3+0x37b>
c010201f:	6f                   	outsl  %ds:(%esi),(%dx)
c0102020:	66 20 66 72          	data16 and %ah,0x72(%esi)
c0102024:	65 65 20 6d 65       	gs and %ch,%gs:0x65(%ebp)
c0102029:	6d                   	insl   (%dx),%es:(%edi)
c010202a:	6f                   	outsl  %ds:(%esi),(%dx)
c010202b:	72 79                	jb     c01020a6 <arch_pmm_framesize+0x1e>
c010202d:	3a 20                	cmp    (%eax),%ah
c010202f:	20 20                	and    %ah,(%eax)
c0102031:	20 20                	and    %ah,(%eax)
c0102033:	20 20                	and    %ah,(%eax)
c0102035:	20 20                	and    %ah,(%eax)
c0102037:	25 64 20 4b 62       	and    $0x624b2064,%eax
c010203c:	0d 0a 00 00 41       	or     $0x4100000a,%eax
c0102041:	6d                   	insl   (%dx),%es:(%edi)
c0102042:	6f                   	outsl  %ds:(%esi),(%dx)
c0102043:	75 6e                	jne    c01020b3 <arch_pmm_framesize+0x2b>
c0102045:	74 20                	je     c0102067 <__umoddi3+0x3a3>
c0102047:	6f                   	outsl  %ds:(%esi),(%dx)
c0102048:	66 20 75 73          	data16 and %dh,0x73(%ebp)
c010204c:	65 64 20 6d 65       	gs and %ch,%fs:0x65(%ebp)
c0102051:	6d                   	insl   (%dx),%es:(%edi)
c0102052:	6f                   	outsl  %ds:(%esi),(%dx)
c0102053:	72 79                	jb     c01020ce <arch_pmm_framesize+0x46>
c0102055:	3a 20                	cmp    (%eax),%ah
c0102057:	20 20                	and    %ah,(%eax)
c0102059:	20 20                	and    %ah,(%eax)
c010205b:	20 20                	and    %ah,(%eax)
c010205d:	20 20                	and    %ah,(%eax)
c010205f:	25 64 20 4b 62       	and    $0x624b2064,%eax
c0102064:	0d 0a 00 54 45       	or     $0x4554000a,%eax
c0102069:	53                   	push   %ebx
c010206a:	54                   	push   %esp
c010206b:	31 32                	xor    %esi,(%edx)
c010206d:	33 20                	xor    (%eax),%esp
c010206f:	74 68                	je     c01020d9 <arch_pmm_framesize+0x51>
c0102071:	69 73 20 69 73 20 61 	imul   $0x61207369,0x20(%ebx),%esi
c0102078:	20 73 74             	and    %dh,0x74(%ebx)
c010207b:	72 69                	jb     c01020e6 <arch_pmm_framesize+0x5e>
c010207d:	6e                   	outsb  %ds:(%esi),(%dx)
c010207e:	67 0d 0a 00 0d 0a    	addr16 or $0xa0d000a,%eax
c0102084:	00 66 90             	add    %ah,-0x70(%esi)
c0102087:	90                   	nop

c0102088 <arch_pmm_framesize>:
c0102088:	00 10 00 00 20 20 20 20 20 20 49 6e 69 74 69 61     ....      Initia
c0102098:	6c 69 7a 69 6e 67 20 50 4d 4d 0d 00 5b 45 52 5d     lizing PMM..[ER]
c01020a8:	0d 0a 45 52 52 4f 52 3a 20 6e 6f 20 4d 42 4f 4f     ..ERROR: no MBOO
c01020b8:	54 20 6d 65 6d 6f 72 79 20 69 6e 66 6f 0d 0a 00     T memory info...
c01020c8:	5b 45 52 5d 0d 0a 45 52 52 4f 52 3a 20 43 6f 75     [ER]..ERROR: Cou
c01020d8:	6c 64 20 6e 6f 74 20 61 6c 6c 6f 63 61 74 65 20     ld not allocate 
c01020e8:	6e 65 77 20 72 65 67 69 6f 6e 20 64 65 73 63 72     new region descr
c01020f8:	69 70 74 6f 72 0d 0a 00 5b 4f 4b 5d 0d 0a 00 90     iptor...[OK]....
c0102108:	55 18 10 c0 4e 18 10 c0 4e 18 10 c0 4e 18 10 c0     U...N...N...N...
c0102118:	3c 18 10 c0 4e 18 10 c0 4e 18 10 c0 4e 18 10 c0     <...N...N...N...
c0102128:	3c 18 10 c0 4e 18 10 c0 4e 18 10 c0 4e 18 10 c0     <...N...N...N...
c0102138:	4e 18 10 c0 4e 18 10 c0 4e 18 10 c0 4e 18 10 c0     N...N...N...N...
c0102148:	4e 18 10 c0 4e 18 10 c0 4e 18 10 c0 4e 18 10 c0     N...N...N...N...
c0102158:	4e 18 10 c0 4e 18 10 c0 4e 18 10 c0 4e 18 10 c0     N...N...N...N...
c0102168:	4e 18 10 c0 4e 18 10 c0 4e 18 10 c0 4e 18 10 c0     N...N...N...N...
c0102178:	4e 18 10 c0 4e 18 10 c0 4e 18 10 c0 4e 18 10 c0     N...N...N...N...
c0102188:	36 18 10 c0 4e 18 10 c0 4e 18 10 c0 4e 18 10 c0     6...N...N...N...
c0102198:	42 18 10 c0 4e 18 10 c0 4e 18 10 c0 4e 18 10 c0     B...N...N...N...
c01021a8:	42 18 10 c0                                         B...
